(lp0
(lp1
S'all'
p2
aS'all'
p3
aS'all'
p4
aS'all'
p5
aS'all'
p6
aS'all'
p7
aS'all'
p8
aS'all'
p9
aS'all'
p10
aS'all'
p11
aS'all'
p12
aS'all'
p13
aS'all'
p14
aS'all'
p15
aS'all'
p16
aS'all'
p17
aS'all'
p18
aS'all'
p19
aS'all'
p20
aS'all'
p21
aS'all'
p22
ag3
ag4
ag5
ag6
ag7
ag8
ag9
ag10
ag11
ag12
ag13
ag14
ag15
ag16
ag17
ag18
ag19
ag20
ag21
ag22
ag4
ag5
ag6
ag7
ag8
ag9
ag10
ag11
ag12
ag13
ag14
ag15
ag16
ag17
ag18
ag19
ag20
ag21
ag22
ag5
ag6
ag7
ag8
ag9
ag10
ag11
ag12
ag13
ag14
ag15
ag16
ag17
ag18
ag19
ag20
ag21
ag22
ag6
ag7
ag8
ag9
ag10
ag11
ag12
ag13
ag14
ag15
ag16
ag17
ag18
ag19
ag20
ag21
ag22
ag7
ag8
ag9
ag10
ag11
ag12
ag13
ag14
ag15
ag16
ag17
ag18
ag19
ag20
ag21
ag22
ag8
ag9
ag10
ag11
ag12
ag13
ag14
ag15
ag16
ag17
ag18
ag19
ag20
ag21
ag22
ag9
ag10
ag11
ag12
ag13
ag14
ag15
ag16
ag17
ag18
ag19
ag20
ag21
ag22
ag10
ag11
ag12
ag13
ag14
ag15
ag16
ag17
ag18
ag19
ag20
ag21
ag22
ag11
ag12
ag13
ag14
ag15
ag16
ag17
ag18
ag19
ag20
ag21
ag22
ag12
ag13
ag14
ag15
ag16
ag17
ag18
ag19
ag20
ag21
ag22
ag13
ag14
ag15
ag16
ag17
ag18
ag19
ag20
ag21
ag22
ag14
ag15
ag16
ag17
ag18
ag19
ag20
ag21
ag22
ag15
ag16
ag17
ag18
ag19
ag20
ag21
ag22
ag16
ag17
ag18
ag19
ag20
ag21
ag22
ag17
ag18
ag19
ag20
ag21
ag22
ag18
ag19
ag20
ag21
ag22
ag19
ag20
ag21
ag22
ag20
ag21
ag22
ag21
ag22
ag22
aS'flesh'
p23
aS'flesh'
p24
aS'flesh'
p25
aS'flesh'
p26
aS'flesh'
p27
aS'flesh'
p28
aS'flesh'
p29
aS'flesh'
p30
aS'flesh'
p31
aS'flesh'
p32
aS'flesh'
p33
aS'flesh'
p34
aS'flesh'
p35
aS'flesh'
p36
aS'flesh'
p37
aS'flesh'
p38
aS'flesh'
p39
aS'flesh'
p40
aS'flesh'
p41
aS'flesh'
p42
aS'flesh'
p43
aS'flesh'
p44
aS'flesh'
p45
ag24
ag25
ag26
ag27
ag28
ag29
ag30
ag31
ag32
ag23
ag34
ag35
ag36
ag37
ag38
ag39
ag40
ag41
ag42
ag43
ag44
ag45
ag25
ag26
ag27
ag28
ag29
ag30
ag31
ag32
ag24
ag34
ag35
ag36
ag37
ag38
ag39
ag40
ag41
ag42
ag43
ag44
ag45
ag26
ag27
ag28
ag29
ag30
ag31
ag32
ag25
ag34
ag35
ag36
ag37
ag38
ag39
ag40
ag41
ag42
ag43
ag44
ag45
ag27
ag28
ag29
ag30
ag31
ag32
ag26
ag34
ag35
ag36
ag37
ag38
ag39
ag40
ag41
ag42
ag43
ag44
ag45
ag28
ag29
ag30
ag31
ag32
ag27
ag34
ag35
ag36
ag37
ag38
ag39
ag40
ag41
ag42
ag43
ag44
ag45
ag29
ag30
ag31
ag32
ag28
ag34
ag35
ag36
ag37
ag38
ag39
ag40
ag41
ag42
ag43
ag44
ag45
ag30
ag31
ag32
ag29
ag34
ag35
ag36
ag37
ag38
ag39
ag40
ag41
ag42
ag43
ag44
ag45
ag31
ag32
ag30
ag34
ag35
ag36
ag37
ag38
ag39
ag40
ag41
ag42
ag43
ag44
ag45
ag32
ag31
ag34
ag35
ag36
ag37
ag38
ag39
ag40
ag41
ag42
ag43
ag44
ag45
ag32
ag34
ag35
ag36
ag37
ag38
ag39
ag40
ag41
ag42
ag43
ag44
ag45
ag34
ag35
ag36
ag37
ag38
ag39
ag40
ag41
ag42
ag43
ag44
ag45
ag35
ag36
ag37
ag38
ag39
ag40
ag41
ag42
ag43
ag44
ag45
ag36
ag37
ag38
ag39
ag40
ag41
ag42
ag43
ag44
ag45
ag37
ag38
ag39
ag40
ag41
ag42
ag43
ag44
ag45
ag38
ag39
ag40
ag41
ag42
ag43
ag44
ag45
ag39
ag40
ag41
ag42
ag43
ag44
ag45
ag40
ag41
ag42
ag43
ag44
ag45
ag41
ag42
ag43
ag44
ag45
ag42
ag43
ag44
ag45
ag43
ag44
ag45
ag44
ag45
ag45
aS'yellow'
p46
aS'yellow'
p47
aS'yellow'
p48
aS'yellow'
p49
aS'yellow'
p50
aS'yellow'
p51
aS'yellow'
p52
aS'yellow'
p53
aS'yellow'
p54
aS'yellow'
p55
aS'yellow'
p56
aS'yellow'
p57
aS'yellow'
p58
aS'yellow'
p59
aS'yellow'
p60
aS'yellow'
p61
aS'yellow'
p62
aS'yellow'
p63
aS'yellow'
p64
aS'yellow'
p65
aS'yellow'
p66
aS'yellow'
p67
aS'yellow'
p68
ag47
ag48
ag49
ag50
ag51
ag52
ag53
ag54
ag55
ag56
ag57
ag58
ag59
ag60
ag61
ag62
ag63
ag64
ag65
ag66
ag67
ag68
ag48
ag49
ag50
ag51
ag52
ag53
ag54
ag55
ag56
ag57
ag58
ag59
ag60
ag61
ag62
ag63
ag64
ag65
ag66
ag67
ag68
ag49
ag50
ag51
ag52
ag53
ag54
ag55
ag56
ag57
ag58
ag59
ag60
ag61
ag62
ag63
ag64
ag65
ag66
ag67
ag68
ag50
ag51
ag52
ag53
ag54
ag55
ag56
ag57
ag58
ag59
ag60
ag61
ag62
ag63
ag64
ag65
ag66
ag67
ag68
ag51
ag52
ag53
ag54
ag55
ag56
ag57
ag58
ag59
ag60
ag61
ag62
ag63
ag64
ag65
ag66
ag67
ag68
ag52
ag53
ag54
ag55
ag56
ag57
ag58
ag59
ag60
ag61
ag62
ag63
ag64
ag65
ag66
ag67
ag68
ag53
ag54
ag55
ag56
ag57
ag58
ag59
ag60
ag61
ag62
ag63
ag64
ag65
ag66
ag67
ag68
ag54
ag55
ag56
ag57
ag58
ag59
ag60
ag61
ag62
ag63
ag64
ag65
ag66
ag67
ag68
ag55
ag56
ag57
ag58
ag59
ag60
ag61
ag62
ag63
ag64
ag65
ag66
ag67
ag68
ag56
ag57
ag58
ag59
ag60
ag61
ag62
ag63
ag64
ag65
ag66
ag67
ag68
ag57
ag58
ag59
ag60
ag61
ag62
ag63
ag64
ag65
ag66
ag67
ag68
ag58
ag59
ag60
ag61
ag62
ag63
ag64
ag65
ag66
ag67
ag68
ag59
ag60
ag61
ag62
ag63
ag64
ag65
ag66
ag67
ag68
ag60
ag61
ag62
ag63
ag64
ag65
ag66
ag67
ag68
ag61
ag62
ag63
ag64
ag65
ag66
ag67
ag68
ag62
ag63
ag64
ag65
ag66
ag67
ag68
ag63
ag64
ag65
ag66
ag67
ag68
ag64
ag65
ag66
ag67
ag68
ag65
ag66
ag67
ag68
ag66
ag67
ag68
ag67
ag68
ag68
aS'not'
p69
aS'not'
p70
aS'not'
p71
aS'not'
p72
aS'not'
p73
aS'not'
p74
aS'not'
p75
aS'not'
p76
aS'not'
p77
aS'not'
p78
aS'not'
p79
aS'not'
p80
aS'not'
p81
aS'not'
p82
aS'not'
p83
aS'not'
p84
aS'not'
p85
aS'not'
p86
aS'not'
p87
aS'not'
p88
aS'not'
p89
aS'not'
p90
ag70
ag71
ag72
ag73
ag74
ag75
ag76
ag77
ag78
ag79
ag80
ag81
ag82
ag83
ag84
ag85
ag86
ag87
ag88
ag89
ag90
ag71
ag72
ag73
ag74
ag75
ag76
ag77
ag78
ag79
ag80
ag81
ag82
ag83
ag84
ag85
ag86
ag87
ag88
ag89
ag90
ag72
ag73
ag74
ag75
ag76
ag77
ag78
ag79
ag80
ag81
ag82
ag83
ag84
ag85
ag86
ag87
ag88
ag89
ag90
ag73
ag74
ag75
ag76
ag77
ag78
ag79
ag80
ag81
ag82
ag83
ag84
ag85
ag86
ag87
ag88
ag89
ag90
ag74
ag75
ag76
ag77
ag78
ag79
ag80
ag81
ag82
ag83
ag84
ag85
ag86
ag87
ag88
ag89
ag90
ag75
ag76
ag77
ag78
ag79
ag80
ag81
ag82
ag83
ag84
ag85
ag86
ag87
ag88
ag89
ag90
ag76
ag77
ag78
ag79
ag80
ag81
ag82
ag83
ag84
ag85
ag86
ag87
ag88
ag89
ag90
ag77
ag78
ag79
ag80
ag81
ag82
ag83
ag84
ag85
ag86
ag87
ag88
ag89
ag90
ag78
ag79
ag80
ag81
ag82
ag83
ag84
ag85
ag86
ag87
ag88
ag89
ag90
ag79
ag80
ag81
ag82
ag83
ag84
ag85
ag86
ag87
ag88
ag89
ag90
ag80
ag81
ag82
ag83
ag84
ag85
ag86
ag87
ag88
ag89
ag90
ag81
ag82
ag83
ag84
ag85
ag86
ag87
ag88
ag89
ag90
ag82
ag83
ag84
ag85
ag86
ag87
ag88
ag89
ag90
ag83
ag84
ag85
ag86
ag87
ag88
ag89
ag90
ag84
ag85
ag86
ag87
ag88
ag89
ag90
ag85
ag86
ag87
ag88
ag89
ag90
ag86
ag87
ag88
ag89
ag90
ag87
ag88
ag89
ag90
ag88
ag89
ag90
ag89
ag90
ag90
aS'sleep'
p91
aS'sleep'
p92
aS'sleep'
p93
aS'sleep'
p94
aS'sleep'
p95
aS'sleep'
p96
aS'sleep'
p97
aS'sleep'
p98
aS'sleep'
p99
aS'sleep'
p100
aS'sleep'
p101
aS'sleep'
p102
aS'sleep'
p103
aS'sleep'
p104
aS'sleep'
p105
aS'sleep'
p106
aS'sleep'
p107
aS'sleep'
p108
aS'sleep'
p109
aS'sleep'
p110
aS'sleep'
p111
aS'sleep'
p112
ag92
ag93
ag94
ag95
ag96
ag97
ag98
ag99
ag100
ag101
ag102
ag103
ag104
ag105
ag106
ag91
ag108
ag109
ag110
ag111
ag112
ag93
ag94
ag95
ag96
ag97
ag98
ag99
ag100
ag101
ag102
ag103
ag104
ag105
ag106
ag92
ag108
ag109
ag110
ag111
ag112
ag94
ag95
ag96
ag97
ag98
ag99
ag100
ag101
ag102
ag103
ag104
ag105
ag106
ag93
ag108
ag109
ag110
ag111
ag112
ag95
ag96
ag97
ag98
ag99
ag100
ag101
ag102
ag103
ag104
ag105
ag106
ag94
ag108
ag109
ag110
ag111
ag112
ag96
ag97
ag98
ag99
ag100
ag101
ag102
ag103
ag104
ag105
ag106
ag95
ag108
ag109
ag110
ag111
ag112
ag97
ag98
ag99
ag100
ag101
ag102
ag103
ag104
ag105
ag106
ag96
ag108
ag109
ag110
ag111
ag112
ag98
ag99
ag100
ag101
ag102
ag103
ag104
ag105
ag106
ag97
ag108
ag109
ag110
ag111
ag112
ag99
ag100
ag101
ag102
ag103
ag104
ag105
ag106
ag98
ag108
ag109
ag110
ag111
ag112
ag100
ag101
ag102
ag103
ag104
ag105
ag106
ag99
ag108
ag109
ag110
ag111
ag112
ag101
ag102
ag103
ag104
ag105
ag106
ag100
ag108
ag109
ag110
ag111
ag112
ag102
ag103
ag104
ag105
ag106
ag101
ag108
ag109
ag110
ag111
ag112
ag103
ag104
ag105
ag106
ag102
ag108
ag109
ag110
ag111
ag112
ag104
ag105
ag106
ag103
ag108
ag109
ag110
ag111
ag112
ag105
ag106
ag104
ag108
ag109
ag110
ag111
ag112
ag106
ag105
ag108
ag109
ag110
ag111
ag112
ag106
ag108
ag109
ag110
ag111
ag112
ag108
ag109
ag110
ag111
ag112
ag109
ag110
ag111
ag112
ag110
ag111
ag112
ag111
ag112
ag112
aS'skin'
p113
aS'skin'
p114
aS'skin'
p115
aS'skin'
p116
aS'skin'
p117
aS'skin'
p118
aS'skin'
p119
aS'skin'
p120
aS'skin'
p121
aS'skin'
p122
aS'skin'
p123
aS'skin'
p124
aS'skin'
p125
aS'skin'
p126
aS'skin'
p127
aS'skin'
p128
aS'skin'
p129
aS'skin'
p130
aS'skin'
p131
aS'skin'
p132
aS'skin'
p133
aS'skin'
p134
aS'skin'
p135
ag114
ag115
ag116
ag117
ag118
ag119
ag120
ag121
ag122
ag123
ag124
ag125
ag126
ag127
ag128
ag129
ag130
ag131
ag132
ag133
ag134
ag135
ag115
ag116
ag117
ag118
ag119
ag120
ag121
ag122
ag123
ag124
ag125
ag126
ag127
ag128
ag129
ag130
ag131
ag132
ag133
ag134
ag135
ag116
ag117
ag118
ag119
ag120
ag121
ag122
ag123
ag124
ag125
ag126
ag127
ag128
ag129
ag130
ag131
ag132
ag133
ag134
ag135
ag117
ag118
ag119
ag120
ag121
ag122
ag123
ag124
ag125
ag126
ag127
ag128
ag129
ag130
ag131
ag132
ag133
ag134
ag135
ag118
ag119
ag120
ag121
ag122
ag123
ag124
ag125
ag126
ag127
ag128
ag129
ag130
ag131
ag132
ag133
ag134
ag135
ag119
ag120
ag121
ag122
ag123
ag124
ag125
ag126
ag127
ag128
ag129
ag130
ag131
ag132
ag133
ag134
ag135
ag120
ag121
ag122
ag123
ag124
ag125
ag126
ag127
ag128
ag129
ag130
ag131
ag132
ag133
ag134
ag135
ag121
ag122
ag123
ag124
ag125
ag126
ag127
ag128
ag129
ag130
ag131
ag132
ag133
ag134
ag135
ag122
ag123
ag124
ag125
ag126
ag127
ag128
ag129
ag130
ag131
ag132
ag133
ag134
ag135
ag123
ag124
ag125
ag126
ag127
ag128
ag129
ag130
ag131
ag132
ag133
ag134
ag135
ag124
ag125
ag126
ag127
ag128
ag129
ag130
ag131
ag132
ag133
ag134
ag135
ag125
ag126
ag127
ag128
ag129
ag130
ag131
ag132
ag133
ag134
ag135
ag126
ag127
ag128
ag129
ag130
ag131
ag132
ag133
ag134
ag135
ag127
ag128
ag129
ag130
ag131
ag132
ag133
ag134
ag135
ag128
ag129
ag130
ag131
ag132
ag133
ag134
ag135
ag129
ag130
ag131
ag132
ag133
ag134
ag135
ag130
ag131
ag132
ag133
ag134
ag135
ag131
ag132
ag133
ag134
ag135
ag132
ag133
ag134
ag135
ag133
ag134
ag135
ag134
ag135
ag135
aS'earth'
p136
aS'earth'
p137
aS'earth'
p138
aS'earth'
p139
aS'earth'
p140
aS'earth'
p141
aS'earth'
p142
aS'earth'
p143
aS'earth'
p144
aS'earth'
p145
aS'earth'
p146
ag140
aS'earth'
p147
aS'earth'
p148
aS'earth'
p149
aS'earth'
p150
aS'earth'
p151
aS'earth'
p152
aS'earth'
p153
aS'earth'
p154
aS'earth'
p155
aS'earth'
p156
ag137
ag138
ag139
ag136
ag141
ag142
ag143
ag144
ag145
ag146
ag136
ag147
ag148
ag149
ag150
ag151
ag152
ag153
ag154
ag155
ag156
ag138
ag139
ag137
ag141
ag142
ag143
ag144
ag145
ag146
ag137
ag147
ag148
ag149
ag150
ag151
ag152
ag153
ag154
ag155
ag156
ag139
ag138
ag141
ag142
ag143
ag144
ag145
ag146
ag138
ag147
ag148
ag149
ag150
ag151
ag152
ag153
ag154
ag155
ag156
ag139
ag141
ag142
ag143
ag144
ag145
ag146
ag139
ag147
ag148
ag149
ag150
ag151
ag152
ag153
ag154
ag155
ag156
ag141
ag142
ag143
ag144
ag145
ag146
aS'earth'
p157
ag147
ag148
ag149
ag150
ag151
ag152
ag153
ag154
ag155
ag156
ag142
ag143
ag144
ag145
ag146
ag141
ag147
ag148
ag149
ag150
ag151
ag152
ag153
ag154
ag155
ag156
ag143
ag144
ag145
ag146
ag142
ag147
ag148
ag149
ag150
ag151
ag152
ag153
ag154
ag155
ag156
ag144
ag145
ag146
ag143
ag147
ag148
ag149
ag150
ag151
ag152
ag153
ag154
ag155
ag156
ag145
ag146
ag144
ag147
ag148
ag149
ag150
ag151
ag152
ag153
ag154
ag155
ag156
ag146
ag145
ag147
ag148
ag149
ag150
ag151
ag152
ag153
ag154
ag155
ag156
ag146
ag147
ag148
ag149
ag150
ag151
ag152
ag153
ag154
ag155
ag156
ag147
ag148
ag149
ag150
ag151
ag152
ag153
ag154
ag155
ag156
ag148
ag149
ag150
ag151
ag152
ag153
ag154
ag155
ag156
ag149
ag150
ag151
ag152
ag153
ag154
ag155
ag156
ag150
ag151
ag152
ag153
ag154
ag155
ag156
ag151
ag152
ag153
ag154
ag155
ag156
ag152
ag153
ag154
ag155
ag156
ag153
ag154
ag155
ag156
ag154
ag155
ag156
ag155
ag156
ag156
aS'cold'
p158
aS'cold'
p159
aS'cold'
p160
aS'cold'
p161
aS'cold'
p162
aS'cold'
p163
aS'cold'
p164
aS'cold'
p165
aS'cold'
p166
aS'cold'
p167
aS'cold'
p168
aS'cold'
p169
ag158
aS'cold'
p170
aS'cold'
p171
aS'cold'
p172
aS'cold'
p173
aS'cold'
p174
aS'cold'
p175
aS'cold'
p176
aS'cold'
p177
aS'cold'
p178
aS'cold'
p179
ag159
ag160
ag161
ag162
ag163
ag164
ag165
ag166
ag167
ag168
ag169
aS'cold'
p180
ag170
ag171
ag172
ag173
ag174
ag175
ag176
ag177
ag178
ag179
ag160
ag161
ag162
ag163
ag164
ag165
ag166
ag167
ag168
ag169
ag159
ag170
ag171
ag172
ag173
ag174
ag175
ag176
ag177
ag178
ag179
ag161
ag162
ag163
ag164
ag165
ag166
ag167
ag168
ag169
ag160
ag170
ag171
ag172
ag173
ag174
ag175
ag176
ag177
ag178
ag179
ag162
ag163
ag164
ag165
ag166
ag167
ag168
ag169
ag161
ag170
ag171
ag172
ag173
ag174
ag175
ag176
ag177
ag178
ag179
ag163
ag164
ag165
ag166
ag167
ag168
ag169
ag162
ag170
ag171
ag172
ag173
ag174
ag175
ag176
ag177
ag178
ag179
ag164
ag165
ag166
ag167
ag168
ag169
ag163
ag170
ag171
ag172
ag173
ag174
ag175
ag176
ag177
ag178
ag179
ag165
ag166
ag167
ag168
ag169
ag164
ag170
ag171
ag172
ag173
ag174
ag175
ag176
ag177
ag178
ag179
ag166
ag167
ag168
ag169
ag165
ag170
ag171
ag172
ag173
ag174
ag175
ag176
ag177
ag178
ag179
ag167
ag168
ag169
ag166
ag170
ag171
ag172
ag173
ag174
ag175
ag176
ag177
ag178
ag179
ag168
ag169
ag167
ag170
ag171
ag172
ag173
ag174
ag175
ag176
ag177
ag178
ag179
ag169
ag168
ag170
ag171
ag172
ag173
ag174
ag175
ag176
ag177
ag178
ag179
ag169
ag170
ag171
ag172
ag173
ag174
ag175
ag176
ag177
ag178
ag179
ag170
ag171
ag172
ag173
ag174
ag175
ag176
ag177
ag178
ag179
ag171
ag172
ag173
ag174
ag175
ag176
ag177
ag178
ag179
ag172
ag173
ag174
ag175
ag176
ag177
ag178
ag179
ag173
ag174
ag175
ag176
ag177
ag178
ag179
ag174
ag175
ag176
ag177
ag178
ag179
ag175
ag176
ag177
ag178
ag179
ag176
ag177
ag178
ag179
ag177
ag178
ag179
ag178
ag179
ag179
aS'eat'
p181
aS'eat'
p182
aS'eat'
p183
aS'eat'
p184
aS'eat'
p185
aS'eat'
p186
aS'eat'
p187
aS'eat'
p188
aS'eat'
p189
aS'eat'
p190
aS'eat'
p191
aS'eat'
p192
aS'eat'
p193
aS'eat'
p194
aS'eat'
p195
aS'eat'
p196
aS'eat'
p197
aS'eat'
p198
ag194
aS'eat'
p199
aS'eat'
p200
aS'eat'
p201
ag182
ag183
ag184
ag185
ag186
ag187
ag188
ag189
ag190
ag191
ag192
ag193
ag181
ag195
ag196
ag197
ag198
ag181
ag199
ag200
ag201
ag183
ag184
ag185
ag186
ag187
ag188
ag189
ag190
ag191
ag192
ag193
ag182
ag195
ag196
ag197
ag198
ag182
ag199
ag200
ag201
ag184
ag185
ag186
ag187
ag188
ag189
ag190
ag191
ag192
ag193
ag183
ag195
ag196
ag197
ag198
ag183
ag199
ag200
ag201
ag185
ag186
ag187
ag188
ag189
ag190
ag191
ag192
ag193
ag184
ag195
ag196
ag197
ag198
ag184
ag199
ag200
ag201
ag186
ag187
ag188
ag189
ag190
ag191
ag192
ag193
ag185
ag195
ag196
ag197
ag198
ag185
ag199
ag200
ag201
ag187
ag188
ag189
ag190
ag191
ag192
ag193
ag186
ag195
ag196
ag197
ag198
ag186
ag199
ag200
ag201
ag188
ag189
ag190
ag191
ag192
ag193
ag187
ag195
ag196
ag197
ag198
ag187
ag199
ag200
ag201
ag189
ag190
ag191
ag192
ag193
ag188
ag195
ag196
ag197
ag198
ag188
ag199
ag200
ag201
ag190
ag191
ag192
ag193
ag189
ag195
ag196
ag197
ag198
ag189
ag199
ag200
ag201
ag191
ag192
ag193
ag190
ag195
ag196
ag197
ag198
ag190
ag199
ag200
ag201
ag192
ag193
ag191
ag195
ag196
ag197
ag198
ag191
ag199
ag200
ag201
ag193
ag192
ag195
ag196
ag197
ag198
ag192
ag199
ag200
ag201
ag193
ag195
ag196
ag197
ag198
ag193
ag199
ag200
ag201
ag195
ag196
ag197
ag198
aS'eat'
p202
ag199
ag200
ag201
ag196
ag197
ag198
ag195
ag199
ag200
ag201
ag197
ag198
ag196
ag199
ag200
ag201
ag198
ag197
ag199
ag200
ag201
ag198
ag199
ag200
ag201
ag199
ag200
ag201
ag200
ag201
ag201
aS'tail'
p203
aS'tail'
p204
aS'tail'
p205
aS'tail'
p206
aS'tail'
p207
aS'tail'
p208
aS'tail'
p209
aS'tail'
p210
aS'tail'
p211
aS'tail'
p212
aS'tail'
p213
aS'tail'
p214
aS'tail'
p215
aS'tail'
p216
aS'tail'
p217
aS'tail'
p218
aS'tail'
p219
aS'tail'
p220
aS'tail'
p221
aS'tail'
p222
aS'tail'
p223
aS'tail'
p224
aS'tail'
p225
ag204
ag205
ag206
ag207
ag208
ag209
ag210
ag211
ag212
ag213
ag214
ag215
ag216
ag217
ag218
ag219
ag220
ag221
ag222
ag223
ag224
ag225
ag205
ag206
ag207
ag208
ag209
ag210
ag211
ag212
ag213
ag214
ag215
ag216
ag217
ag218
ag219
ag220
ag221
ag222
ag223
ag224
ag225
ag206
ag207
ag208
ag209
ag210
ag211
ag212
ag213
ag214
ag215
ag216
ag217
ag218
ag219
ag220
ag221
ag222
ag223
ag224
ag225
ag207
ag208
ag209
ag210
ag211
ag212
ag213
ag214
ag215
ag216
ag217
ag218
ag219
ag220
ag221
ag222
ag223
ag224
ag225
ag208
ag209
ag210
ag211
ag212
ag213
ag214
ag215
ag216
ag217
ag218
ag219
ag220
ag221
ag222
ag223
ag224
ag225
ag209
ag210
ag211
ag212
ag213
ag214
ag215
ag216
ag217
ag218
ag219
ag220
ag221
ag222
ag223
ag224
ag225
ag210
ag211
ag212
ag213
ag214
ag215
ag216
ag217
ag218
ag219
ag220
ag221
ag222
ag223
ag224
ag225
ag211
ag212
ag213
ag214
ag215
ag216
ag217
ag218
ag219
ag220
ag221
ag222
ag223
ag224
ag225
ag212
ag213
ag214
ag215
ag216
ag217
ag218
ag219
ag220
ag221
ag222
ag223
ag224
ag225
ag213
ag214
ag215
ag216
ag217
ag218
ag219
ag220
ag221
ag222
ag223
ag224
ag225
ag214
ag215
ag216
ag217
ag218
ag219
ag220
ag221
ag222
ag223
ag224
ag225
ag215
ag216
ag217
ag218
ag219
ag220
ag221
ag222
ag223
ag224
ag225
ag216
ag217
ag218
ag219
ag220
ag221
ag222
ag223
ag224
ag225
ag217
ag218
ag219
ag220
ag221
ag222
ag223
ag224
ag225
ag218
ag219
ag220
ag221
ag222
ag223
ag224
ag225
ag219
ag220
ag221
ag222
ag223
ag224
ag225
ag220
ag221
ag222
ag223
ag224
ag225
ag221
ag222
ag223
ag224
ag225
ag222
ag223
ag224
ag225
ag223
ag224
ag225
ag224
ag225
ag225
aS'black'
p226
aS'black'
p227
aS'black'
p228
aS'black'
p229
aS'black'
p230
aS'black'
p231
aS'black'
p232
aS'black'
p233
aS'black'
p234
aS'black'
p235
aS'black'
p236
aS'black'
p237
aS'black'
p238
aS'black'
p239
aS'black'
p240
aS'black'
p241
aS'black'
p242
aS'black'
p243
aS'black'
p244
ag241
aS'black'
p245
aS'black'
p246
aS'black'
p247
ag227
ag228
ag229
ag230
ag231
ag232
ag233
ag234
ag235
ag236
ag237
ag238
ag239
ag240
ag226
ag242
ag243
ag244
ag226
ag245
ag246
ag247
ag228
ag229
ag230
ag231
ag232
ag233
ag234
ag235
ag236
ag237
ag238
ag239
ag240
ag227
ag242
ag243
ag244
ag227
ag245
ag246
ag247
ag229
ag230
ag231
ag232
ag233
ag234
ag235
ag236
ag237
ag238
ag239
ag240
ag228
ag242
ag243
ag244
ag228
ag245
ag246
ag247
ag230
ag231
ag232
ag233
ag234
ag235
ag236
ag237
ag238
ag239
ag240
ag229
ag242
ag243
ag244
ag229
ag245
ag246
ag247
ag231
ag232
ag233
ag234
ag235
ag236
ag237
ag238
ag239
ag240
ag230
ag242
ag243
ag244
ag230
ag245
ag246
ag247
ag232
ag233
ag234
ag235
ag236
ag237
ag238
ag239
ag240
ag231
ag242
ag243
ag244
ag231
ag245
ag246
ag247
ag233
ag234
ag235
ag236
ag237
ag238
ag239
ag240
ag232
ag242
ag243
ag244
ag232
ag245
ag246
ag247
ag234
ag235
ag236
ag237
ag238
ag239
ag240
ag233
ag242
ag243
ag244
ag233
ag245
ag246
ag247
ag235
ag236
ag237
ag238
ag239
ag240
ag234
ag242
ag243
ag244
ag234
ag245
ag246
ag247
ag236
ag237
ag238
ag239
ag240
ag235
ag242
ag243
ag244
ag235
ag245
ag246
ag247
ag237
ag238
ag239
ag240
ag236
ag242
ag243
ag244
ag236
ag245
ag246
ag247
ag238
ag239
ag240
ag237
ag242
ag243
ag244
ag237
ag245
ag246
ag247
ag239
ag240
ag238
ag242
ag243
ag244
ag238
ag245
ag246
ag247
ag240
ag239
ag242
ag243
ag244
ag239
ag245
ag246
ag247
ag240
ag242
ag243
ag244
ag240
ag245
ag246
ag247
ag242
ag243
ag244
aS'black'
p248
ag245
ag246
ag247
ag243
ag244
ag242
ag245
ag246
ag247
ag244
ag243
ag245
ag246
ag247
ag244
ag245
ag246
ag247
ag245
ag246
ag247
ag246
ag247
ag247
aS'swim'
p249
aS'swim'
p250
aS'swim'
p251
aS'swim'
p252
aS'swim'
p253
aS'swim'
p254
aS'swim'
p255
aS'swim'
p256
aS'swim'
p257
aS'swim'
p258
aS'swim'
p259
aS'swim'
p260
aS'swim'
p261
aS'swim'
p262
aS'swim'
p263
aS'swim'
p264
aS'swim'
p265
aS'swim'
p266
aS'swim'
p267
aS'swim'
p268
ag250
ag251
ag252
ag253
ag254
ag255
ag256
ag257
ag258
ag259
ag260
ag261
ag262
ag263
ag264
ag265
ag266
ag267
ag268
ag251
ag252
ag253
ag254
ag255
ag256
ag257
ag258
ag259
ag260
ag261
ag262
ag263
ag264
ag265
ag266
ag267
ag268
ag252
ag253
ag254
ag255
ag256
ag257
ag258
ag259
ag260
ag261
ag262
ag263
ag264
ag265
ag266
ag267
ag268
ag253
ag254
ag255
ag256
ag257
ag258
ag259
ag260
ag261
ag262
ag263
ag264
ag265
ag266
ag267
ag268
ag254
ag255
ag256
ag257
ag258
ag259
ag260
ag261
ag262
ag263
ag264
ag265
ag266
ag267
ag268
ag255
ag256
ag257
ag258
ag259
ag260
ag261
ag262
ag263
ag264
ag265
ag266
ag267
ag268
ag256
ag257
ag258
ag259
ag260
ag261
ag262
ag263
ag264
ag265
ag266
ag267
ag268
ag257
ag258
ag259
ag260
ag261
ag262
ag263
ag264
ag265
ag266
ag267
ag268
ag258
ag259
ag260
ag261
ag262
ag263
ag264
ag265
ag266
ag267
ag268
ag259
ag260
ag261
ag262
ag263
ag264
ag265
ag266
ag267
ag268
ag260
ag261
ag262
ag263
ag264
ag265
ag266
ag267
ag268
ag261
ag262
ag263
ag264
ag265
ag266
ag267
ag268
ag262
ag263
ag264
ag265
ag266
ag267
ag268
ag263
ag264
ag265
ag266
ag267
ag268
ag264
ag265
ag266
ag267
ag268
ag265
ag266
ag267
ag268
ag266
ag267
ag268
ag267
ag268
ag268
aS'good'
p269
aS'good'
p270
aS'good'
p271
aS'good'
p272
aS'good'
p273
aS'good'
p274
aS'good'
p275
aS'good'
p276
aS'good'
p277
aS'good'
p278
aS'good'
p279
aS'good'
p280
aS'good'
p281
aS'good'
p282
aS'good'
p283
aS'good'
p284
aS'good'
p285
aS'good'
p286
aS'good'
p287
aS'good'
p288
aS'good'
p289
aS'good'
p290
ag270
ag271
ag272
ag273
ag274
ag275
ag276
ag277
ag278
ag279
ag280
ag281
ag282
ag283
ag284
ag285
ag286
ag287
ag288
ag289
ag290
ag271
ag272
ag273
ag274
ag275
ag276
ag277
ag278
ag279
ag280
ag281
ag282
ag283
ag284
ag285
ag286
ag287
ag288
ag289
ag290
ag272
ag273
ag274
ag275
ag276
ag277
ag278
ag279
ag280
ag281
ag282
ag283
ag284
ag285
ag286
ag287
ag288
ag289
ag290
ag273
ag274
ag275
ag276
ag277
ag278
ag279
ag280
ag281
ag282
ag283
ag284
ag285
ag286
ag287
ag288
ag289
ag290
ag274
ag275
ag276
ag277
ag278
ag279
ag280
ag281
ag282
ag283
ag284
ag285
ag286
ag287
ag288
ag289
ag290
ag275
ag276
ag277
ag278
ag279
ag280
ag281
ag282
ag283
ag284
ag285
ag286
ag287
ag288
ag289
ag290
ag276
ag277
ag278
ag279
ag280
ag281
ag282
ag283
ag284
ag285
ag286
ag287
ag288
ag289
ag290
ag277
ag278
ag279
ag280
ag281
ag282
ag283
ag284
ag285
ag286
ag287
ag288
ag289
ag290
ag278
ag279
ag280
ag281
ag282
ag283
ag284
ag285
ag286
ag287
ag288
ag289
ag290
ag279
ag280
ag281
ag282
ag283
ag284
ag285
ag286
ag287
ag288
ag289
ag290
ag280
ag281
ag282
ag283
ag284
ag285
ag286
ag287
ag288
ag289
ag290
ag281
ag282
ag283
ag284
ag285
ag286
ag287
ag288
ag289
ag290
ag282
ag283
ag284
ag285
ag286
ag287
ag288
ag289
ag290
ag283
ag284
ag285
ag286
ag287
ag288
ag289
ag290
ag284
ag285
ag286
ag287
ag288
ag289
ag290
ag285
ag286
ag287
ag288
ag289
ag290
ag286
ag287
ag288
ag289
ag290
ag287
ag288
ag289
ag290
ag288
ag289
ag290
ag289
ag290
ag290
aS'big'
p291
aS'big'
p292
aS'big'
p293
aS'big'
p294
aS'big'
p295
ag291
aS'big'
p296
aS'big'
p297
aS'big'
p298
ag291
ag291
aS'big'
p299
aS'big'
p300
aS'big'
p301
aS'big'
p302
aS'big'
p303
aS'big'
p304
aS'big'
p305
aS'big'
p306
aS'big'
p307
ag291
aS'big'
p308
aS'big'
p309
ag292
ag293
ag294
ag295
aS'big'
p310
ag296
ag297
ag298
aS'many'
p311
aS'big'
p312
ag299
ag300
ag301
ag302
ag303
ag304
ag305
ag306
ag307
aS'big'
p313
ag308
ag309
ag293
ag294
ag295
ag292
ag296
ag297
ag298
ag292
ag292
ag299
ag300
ag301
ag302
ag303
ag304
ag305
ag306
ag307
ag292
ag308
ag309
ag294
ag295
ag293
ag296
ag297
ag298
ag293
ag293
ag299
ag300
ag301
ag302
ag303
ag304
ag305
ag306
ag307
ag293
ag308
ag309
ag295
ag294
ag296
ag297
ag298
ag294
ag294
ag299
ag300
ag301
ag302
ag303
ag304
ag305
ag306
ag307
ag294
ag308
ag309
ag295
ag296
ag297
ag298
ag295
ag295
ag299
ag300
ag301
ag302
ag303
ag304
ag305
ag306
ag307
ag295
ag308
ag309
ag296
ag297
ag298
aS'big'
p314
ag312
ag299
ag300
ag301
ag302
ag303
ag304
ag305
ag306
ag307
ag313
ag308
ag309
ag297
ag298
ag296
ag296
ag299
ag300
ag301
ag302
ag303
ag304
ag305
ag306
ag307
ag296
ag308
ag309
ag298
ag297
ag297
ag299
ag300
ag301
ag302
ag303
ag304
ag305
ag306
ag307
ag297
ag308
ag309
ag298
ag298
ag299
ag300
ag301
ag302
ag303
ag304
ag305
ag306
ag307
ag298
ag308
ag309
ag312
ag299
ag300
ag301
ag302
ag303
ag304
ag305
ag306
ag307
ag313
ag308
ag309
ag299
ag300
ag301
ag302
ag303
ag304
ag305
ag306
ag307
ag313
ag308
ag309
ag300
ag301
ag302
ag303
ag304
ag305
ag306
ag307
ag299
ag308
ag309
ag301
ag302
ag303
ag304
ag305
ag306
ag307
ag300
ag308
ag309
ag302
ag303
ag304
ag305
ag306
ag307
ag301
ag308
ag309
ag303
ag304
ag305
ag306
ag307
ag302
ag308
ag309
ag304
ag305
ag306
ag307
ag303
ag308
ag309
ag305
ag306
ag307
ag304
ag308
ag309
ag306
ag307
ag305
ag308
ag309
ag307
ag306
ag308
ag309
ag307
ag308
ag309
ag308
ag309
ag309
aS'know'
p315
aS'know'
p316
aS'know'
p317
aS'know'
p318
aS'know'
p319
aS'know'
p320
aS'know'
p321
aS'know'
p322
aS'know'
p323
aS'know'
p324
aS'know'
p325
aS'know'
p326
aS'know'
p327
aS'know'
p328
aS'know'
p329
aS'know'
p330
aS'know'
p331
aS'know'
p332
aS'know'
p333
aS'know'
p334
aS'know'
p335
aS'know'
p336
ag316
ag315
ag318
ag319
ag320
ag321
ag322
ag323
ag324
ag325
ag326
ag327
ag328
ag329
ag330
ag331
ag332
ag333
ag334
ag335
ag336
ag316
ag318
ag319
ag320
ag321
ag322
ag323
ag324
ag325
ag326
ag327
ag328
ag329
ag330
ag331
ag332
ag333
ag334
ag335
ag336
ag318
ag319
ag320
ag321
ag322
ag323
ag324
ag325
ag326
ag327
ag328
ag329
ag330
ag331
ag332
ag333
ag334
ag335
ag336
ag319
ag320
ag321
ag322
ag323
ag324
ag325
ag326
ag327
ag328
ag329
ag330
ag331
ag332
ag333
ag334
ag335
ag336
ag320
ag321
ag322
ag323
ag324
ag325
ag326
ag327
ag328
ag329
ag330
ag331
ag332
ag333
ag334
ag335
ag336
ag321
ag322
ag323
ag324
ag325
ag326
ag327
ag328
ag329
ag330
ag331
ag332
ag333
ag334
ag335
ag336
ag322
ag323
ag324
ag325
ag326
ag327
ag328
ag329
ag330
ag331
ag332
ag333
ag334
ag335
ag336
ag323
ag324
ag325
ag326
ag327
ag328
ag329
ag330
ag331
ag332
ag333
ag334
ag335
ag336
ag324
ag325
ag326
ag327
ag328
ag329
ag330
ag331
ag332
ag333
ag334
ag335
ag336
ag325
ag326
ag327
ag328
ag329
ag330
ag331
ag332
ag333
ag334
ag335
ag336
ag326
ag327
ag328
ag329
ag330
ag331
ag332
ag333
ag334
ag335
ag336
ag327
ag328
ag329
ag330
ag331
ag332
ag333
ag334
ag335
ag336
ag328
ag329
ag330
ag331
ag332
ag333
ag334
ag335
ag336
ag329
ag330
ag331
ag332
ag333
ag334
ag335
ag336
ag330
ag331
ag332
ag333
ag334
ag335
ag336
ag331
ag332
ag333
ag334
ag335
ag336
ag332
ag333
ag334
ag335
ag336
ag333
ag334
ag335
ag336
ag334
ag335
ag336
ag335
ag336
ag336
aS'foot'
p337
aS'foot'
p338
aS'foot'
p339
aS'foot'
p340
aS'foot'
p341
aS'foot'
p342
aS'foot'
p343
aS'foot'
p344
aS'foot'
p345
aS'foot'
p346
aS'foot'
p347
aS'foot'
p348
aS'foot'
p349
aS'foot'
p350
aS'foot'
p351
aS'foot'
p352
aS'foot'
p353
aS'foot'
p354
aS'foot'
p355
aS'foot'
p356
aS'foot'
p357
aS'foot'
p358
aS'foot'
p359
ag338
ag339
ag340
ag341
ag342
ag343
ag344
ag345
ag346
ag347
ag348
ag349
ag350
ag351
ag352
ag353
ag354
ag355
ag356
ag357
ag358
ag359
ag339
ag340
ag341
ag342
ag343
ag344
ag345
ag346
ag347
ag348
ag349
ag350
ag351
ag352
ag353
ag354
ag355
ag356
ag357
ag358
ag359
ag340
ag341
ag342
ag343
ag344
ag345
ag346
ag347
ag348
ag349
ag350
ag351
ag352
ag353
ag354
ag355
ag356
ag357
ag358
ag359
ag341
ag342
ag343
ag344
ag345
ag346
ag347
ag348
ag349
ag350
ag351
ag352
ag353
ag354
ag355
ag356
ag357
ag358
ag359
ag342
ag343
ag344
ag345
ag346
ag347
ag348
ag349
ag350
ag351
ag352
ag353
ag354
ag355
ag356
ag357
ag358
ag359
ag343
ag344
ag345
ag346
ag347
ag348
ag349
ag350
ag351
ag352
ag353
ag354
ag355
ag356
ag357
ag358
ag359
ag344
ag345
ag346
ag347
ag348
ag349
ag350
ag351
ag352
ag353
ag354
ag355
ag356
ag357
ag358
ag359
ag345
ag346
ag347
ag348
ag349
ag350
ag351
ag352
ag353
ag354
ag355
ag356
ag357
ag358
ag359
ag346
ag347
ag348
ag349
ag350
ag351
ag352
ag353
ag354
ag355
ag356
ag357
ag358
ag359
ag347
ag348
ag349
ag350
ag351
ag352
ag353
ag354
ag355
ag356
ag357
ag358
ag359
ag348
ag349
ag350
ag351
ag352
ag353
ag354
ag355
ag356
ag357
ag358
ag359
ag349
ag350
ag351
ag352
ag353
ag354
ag355
ag356
ag357
ag358
ag359
ag350
ag351
ag352
ag353
ag354
ag355
ag356
ag357
ag358
ag359
ag351
ag352
ag353
ag354
ag355
ag356
ag357
ag358
ag359
ag352
ag353
ag354
ag355
ag356
ag357
ag358
ag359
ag353
ag354
ag355
ag356
ag357
ag358
ag359
ag354
ag355
ag356
ag357
ag358
ag359
ag355
ag356
ag357
ag358
ag359
ag356
ag357
ag358
ag359
ag357
ag358
ag359
ag358
ag359
ag359
aS'walk'
p360
aS'walk'
p361
aS'walk'
p362
aS'walk'
p363
aS'walk'
p364
aS'walk'
p365
aS'walk'
p366
aS'walk'
p367
aS'walk'
p368
aS'walk'
p369
aS'walk'
p370
aS'walk'
p371
aS'walk'
p372
aS'walk'
p373
aS'walk'
p374
aS'walk'
p375
aS'walk'
p376
aS'walk'
p377
aS'walk'
p378
aS'walk'
p379
aS'walk'
p380
aS'walk'
p381
ag361
ag362
ag363
ag364
ag365
ag366
ag367
ag368
ag369
ag370
ag371
ag372
ag373
ag374
ag375
ag376
ag377
ag378
ag379
ag380
ag381
ag362
ag363
ag364
ag365
ag366
ag367
ag368
ag369
ag370
ag371
ag372
ag373
ag374
ag375
ag376
ag377
ag378
ag379
ag380
ag381
ag363
ag364
ag365
ag366
ag367
ag368
ag369
ag370
ag371
ag372
ag373
ag374
ag375
ag376
ag377
ag378
ag379
ag380
ag381
ag364
ag365
ag366
ag367
ag368
ag369
ag370
ag371
ag372
ag373
ag374
ag375
ag376
ag377
ag378
ag379
ag380
ag381
ag365
ag366
ag367
ag368
ag369
ag370
ag371
ag372
ag373
ag374
ag375
ag376
ag377
ag378
ag379
ag380
ag381
ag366
ag367
ag368
ag369
ag370
ag371
ag372
ag373
ag374
ag375
ag376
ag377
ag378
ag379
ag380
ag381
ag367
ag368
ag369
ag370
ag371
ag372
ag373
ag374
ag375
ag376
ag377
ag378
ag379
ag380
ag381
ag368
ag369
ag370
ag371
ag372
ag373
ag374
ag375
ag376
ag377
ag378
ag379
ag380
ag381
ag369
ag370
ag371
ag372
ag373
ag374
ag375
ag376
ag377
ag378
ag379
ag380
ag381
ag370
ag371
ag372
ag373
ag374
ag375
ag376
ag377
ag378
ag379
ag380
ag381
ag371
ag372
ag373
ag374
ag375
ag376
ag377
ag378
ag379
ag380
ag381
ag372
ag373
ag374
ag375
ag376
ag377
ag378
ag379
ag380
ag381
ag373
ag374
ag375
ag376
ag377
ag378
ag379
ag380
ag381
ag374
ag375
ag376
ag377
ag378
ag379
ag380
ag381
ag375
ag376
ag377
ag378
ag379
ag380
ag381
ag376
ag377
ag378
ag379
ag380
ag381
ag377
ag378
ag379
ag380
ag381
ag378
ag379
ag380
ag381
ag379
ag380
ag381
ag380
ag381
ag381
aS'name'
p382
aS'name'
p383
aS'name'
p384
aS'name'
p385
aS'name'
p386
aS'name'
p387
aS'name'
p388
aS'name'
p389
aS'name'
p390
aS'name'
p391
aS'name'
p392
aS'name'
p393
aS'name'
p394
aS'name'
p395
aS'name'
p396
aS'name'
p397
aS'name'
p398
aS'name'
p399
aS'name'
p400
aS'name'
p401
aS'name'
p402
aS'name'
p403
aS'name'
p404
ag383
ag384
ag385
ag386
ag387
ag388
ag389
ag390
ag391
ag392
ag393
ag394
ag395
ag396
ag397
ag398
ag399
ag400
ag401
ag402
ag403
ag404
ag384
ag385
ag386
ag387
ag388
ag389
ag390
ag391
ag392
ag393
ag394
ag395
ag396
ag397
ag398
ag399
ag400
ag401
ag402
ag403
ag404
ag385
ag386
ag387
ag388
ag389
ag390
ag391
ag392
ag393
ag394
ag395
ag396
ag397
ag398
ag399
ag400
ag401
ag402
ag403
ag404
ag386
ag387
ag388
ag389
ag390
ag391
ag392
ag393
ag394
ag395
ag396
ag397
ag398
ag399
ag400
ag401
ag402
ag403
ag404
ag387
ag388
ag389
ag390
ag391
ag392
ag393
ag394
ag395
ag396
ag397
ag398
ag399
ag400
ag401
ag402
ag403
ag404
ag388
ag389
ag390
ag391
ag392
ag393
ag394
ag395
ag396
ag397
ag398
ag399
ag400
ag401
ag402
ag403
ag404
ag389
ag390
ag391
ag392
ag393
ag394
ag395
ag396
ag397
ag398
ag399
ag400
ag401
ag402
ag403
ag404
ag390
ag391
ag392
ag393
ag394
ag395
ag396
ag397
ag398
ag399
ag400
ag401
ag402
ag403
ag404
ag391
ag392
ag393
ag394
ag395
ag396
ag397
ag398
ag399
ag400
ag401
ag402
ag403
ag404
ag392
ag393
ag394
ag395
ag396
ag397
ag398
ag399
ag400
ag401
ag402
ag403
ag404
ag393
ag394
ag395
ag396
ag397
ag398
ag399
ag400
ag401
ag402
ag403
ag404
ag394
ag395
ag396
ag397
ag398
ag399
ag400
ag401
ag402
ag403
ag404
ag395
ag396
ag397
ag398
ag399
ag400
ag401
ag402
ag403
ag404
ag396
ag397
ag398
ag399
ag400
ag401
ag402
ag403
ag404
ag397
ag398
ag399
ag400
ag401
ag402
ag403
ag404
ag398
ag399
ag400
ag401
ag402
ag403
ag404
ag399
ag400
ag401
ag402
ag403
ag404
ag400
ag401
ag402
ag403
ag404
ag401
ag402
ag403
ag404
ag402
ag403
ag404
ag403
ag404
ag404
aS'die'
p405
aS'die'
p406
aS'die'
p407
aS'die'
p408
aS'die'
p409
aS'die'
p410
aS'die'
p411
aS'die'
p412
aS'die'
p413
aS'die'
p414
aS'die'
p415
aS'die'
p416
aS'die'
p417
aS'die'
p418
aS'die'
p419
aS'die'
p420
aS'die'
p421
aS'die'
p422
aS'die'
p423
aS'die'
p424
aS'die'
p425
aS'die'
p426
ag406
ag407
ag408
ag409
ag410
ag411
ag412
ag413
ag414
ag415
ag416
ag417
ag418
ag419
ag420
ag421
ag422
ag423
ag424
ag425
ag426
ag407
ag408
ag409
ag410
ag411
ag412
ag413
ag414
ag415
ag416
ag417
ag418
ag419
ag420
ag421
ag422
ag423
ag424
ag425
ag426
ag408
ag409
ag410
ag411
ag412
ag413
ag414
ag415
ag416
ag417
ag418
ag419
ag420
ag421
ag422
ag423
ag424
ag425
ag426
ag409
ag410
ag411
ag412
ag413
ag414
ag415
ag416
ag417
ag418
ag419
ag420
ag421
ag422
ag423
ag424
ag425
ag426
ag410
ag411
ag412
ag413
ag414
ag415
ag416
ag417
ag418
ag419
ag420
ag421
ag422
ag423
ag424
ag425
ag426
ag411
ag412
ag413
ag414
ag415
ag416
ag417
ag418
ag419
ag420
ag421
ag422
ag423
ag424
ag425
ag426
ag412
ag413
ag414
ag415
ag416
ag417
ag418
ag419
ag420
ag421
ag422
ag423
ag424
ag425
ag426
ag413
ag414
ag415
ag416
ag417
ag418
ag419
ag420
ag421
ag422
ag423
ag424
ag425
ag426
ag414
ag415
ag416
ag417
ag418
ag419
ag420
ag421
ag422
ag423
ag424
ag425
ag426
ag415
ag416
ag417
ag418
ag419
ag420
ag421
ag422
ag423
ag424
ag425
ag426
ag416
ag417
ag418
ag419
ag420
ag421
ag422
ag423
ag424
ag425
ag426
ag417
ag418
ag419
ag420
ag421
ag422
ag423
ag424
ag425
ag426
ag418
ag419
ag420
ag421
ag422
ag423
ag424
ag425
ag426
ag419
ag420
ag421
ag422
ag423
ag424
ag425
ag426
ag420
ag421
ag422
ag423
ag424
ag425
ag426
ag421
ag422
ag423
ag424
ag425
ag426
ag422
ag423
ag424
ag425
ag426
ag423
ag424
ag425
ag426
ag424
ag425
ag426
ag425
ag426
ag426
aS'sand'
p427
aS'sand'
p428
aS'sand'
p429
aS'sand'
p430
aS'sand'
p431
aS'sand'
p432
aS'sand'
p433
aS'sand'
p434
aS'sand'
p435
aS'sand'
p436
aS'sand'
p437
aS'sand'
p438
aS'sand'
p439
aS'sand'
p440
aS'sand'
p441
aS'sand'
p442
aS'sand'
p443
aS'sand'
p444
aS'sand'
p445
aS'sand'
p446
aS'sand'
p447
aS'sand'
p448
aS'sand'
p449
ag428
ag429
ag430
ag431
ag432
ag433
ag434
ag435
ag436
ag437
ag438
ag439
ag440
ag441
ag442
ag443
ag444
ag445
ag427
ag447
ag448
ag449
ag429
ag430
ag431
ag432
ag433
ag434
ag435
ag436
ag437
ag438
ag439
ag440
ag441
ag442
ag443
ag444
ag445
ag428
ag447
ag448
ag449
ag430
ag431
ag432
ag433
ag434
ag435
ag436
ag437
ag438
ag439
ag440
ag441
ag442
ag443
ag444
ag445
ag429
ag447
ag448
ag449
ag431
ag432
ag433
ag434
ag435
ag436
ag437
ag438
ag439
ag440
ag441
ag442
ag443
ag444
ag445
ag430
ag447
ag448
ag449
ag432
ag433
ag434
ag435
ag436
ag437
ag438
ag439
ag440
ag441
ag442
ag443
ag444
ag445
ag431
ag447
ag448
ag449
ag433
ag434
ag435
ag436
ag437
ag438
ag439
ag440
ag441
ag442
ag443
ag444
ag445
ag432
ag447
ag448
ag449
ag434
ag435
ag436
ag437
ag438
ag439
ag440
ag441
ag442
ag443
ag444
ag445
ag433
ag447
ag448
ag449
ag435
ag436
ag437
ag438
ag439
ag440
ag441
ag442
ag443
ag444
ag445
ag434
ag447
ag448
ag449
ag436
ag437
ag438
ag439
ag440
ag441
ag442
ag443
ag444
ag445
ag435
ag447
ag448
ag449
ag437
ag438
ag439
ag440
ag441
ag442
ag443
ag444
ag445
ag436
ag447
ag448
ag449
ag438
ag439
ag440
ag441
ag442
ag443
ag444
ag445
ag437
ag447
ag448
ag449
ag439
ag440
ag441
ag442
ag443
ag444
ag445
ag438
ag447
ag448
ag449
ag440
ag441
ag442
ag443
ag444
ag445
ag439
ag447
ag448
ag449
ag441
ag442
ag443
ag444
ag445
ag440
ag447
ag448
ag449
ag442
ag443
ag444
ag445
ag441
ag447
ag448
ag449
ag443
ag444
ag445
ag442
ag447
ag448
ag449
ag444
ag445
ag443
ag447
ag448
ag449
ag445
ag444
ag447
ag448
ag449
ag445
ag447
ag448
ag449
ag447
ag448
ag449
ag448
ag449
ag449
aS'nose'
p450
aS'nose'
p451
aS'nose'
p452
aS'nose'
p453
aS'nose'
p454
aS'nose'
p455
aS'nose'
p456
aS'nose'
p457
aS'nose'
p458
aS'nose'
p459
aS'nose'
p460
aS'nose'
p461
aS'nose'
p462
aS'nose'
p463
aS'nose'
p464
aS'nose'
p465
aS'nose'
p466
aS'nose'
p467
aS'nose'
p468
aS'nose'
p469
aS'nose'
p470
aS'nose'
p471
aS'nose'
p472
ag451
ag452
ag453
ag454
ag455
ag456
ag457
ag458
ag459
ag460
ag461
ag462
ag463
ag464
ag465
ag466
ag467
ag468
ag469
ag470
ag471
ag472
ag452
ag453
ag454
ag455
ag456
ag457
ag458
ag459
ag460
ag461
ag462
ag463
ag464
ag465
ag466
ag467
ag468
ag469
ag470
ag471
ag472
ag453
ag454
ag455
ag456
ag457
ag458
ag459
ag460
ag461
ag462
ag463
ag464
ag465
ag466
ag467
ag468
ag469
ag470
ag471
ag472
ag454
ag455
ag456
ag457
ag458
ag459
ag460
ag461
ag462
ag463
ag464
ag465
ag466
ag467
ag468
ag469
ag470
ag471
ag472
ag455
ag456
ag457
ag458
ag459
ag460
ag461
ag462
ag463
ag464
ag465
ag466
ag467
ag468
ag469
ag470
ag471
ag472
ag456
ag457
ag458
ag459
ag460
ag461
ag462
ag463
ag464
ag465
ag466
ag467
ag468
ag469
ag470
ag471
ag472
ag457
ag458
ag459
ag460
ag461
ag462
ag463
ag464
ag465
ag466
ag467
ag468
ag469
ag470
ag471
ag472
ag458
ag459
ag460
ag461
ag462
ag463
ag464
ag465
ag466
ag467
ag468
ag469
ag470
ag471
ag472
ag459
ag460
ag461
ag462
ag463
ag464
ag465
ag466
ag467
ag468
ag469
ag470
ag471
ag472
ag460
ag461
ag462
ag463
ag464
ag465
ag466
ag467
ag468
ag469
ag470
ag471
ag472
ag461
ag462
ag463
ag464
ag465
ag466
ag467
ag468
ag469
ag470
ag471
ag472
ag462
ag463
ag464
ag465
ag466
ag467
ag468
ag469
ag470
ag471
ag472
ag463
ag464
ag465
ag466
ag467
ag468
ag469
ag470
ag471
ag472
ag464
ag465
ag466
ag467
ag468
ag469
ag470
ag471
ag472
ag465
ag466
ag467
ag468
ag469
ag470
ag471
ag472
ag466
ag467
ag468
ag469
ag470
ag471
ag472
ag467
ag468
ag469
ag470
ag471
ag472
ag468
ag469
ag470
ag471
ag472
ag469
ag470
ag471
ag472
ag470
ag471
ag472
ag471
ag472
ag472
aS'night'
p473
aS'night'
p474
aS'night'
p475
aS'night'
p476
aS'night'
p477
aS'night'
p478
aS'night'
p479
aS'night'
p480
aS'night'
p481
aS'night'
p482
aS'night'
p483
aS'night'
p484
aS'night'
p485
aS'night'
p486
aS'night'
p487
aS'night'
p488
aS'night'
p489
aS'night'
p490
aS'night'
p491
aS'night'
p492
aS'night'
p493
aS'night'
p494
aS'night'
p495
ag474
ag475
ag476
ag477
ag478
ag479
ag480
ag481
ag482
ag483
ag484
ag485
ag486
ag487
ag488
ag489
ag490
ag491
ag492
ag493
ag494
ag495
ag475
ag476
ag477
ag478
ag479
ag480
ag481
ag482
ag483
ag484
ag485
ag486
ag487
ag488
ag489
ag490
ag491
ag492
ag493
ag494
ag495
ag476
ag477
ag478
ag479
ag480
ag481
ag482
ag483
ag484
ag485
ag486
ag487
ag488
ag489
ag490
ag491
ag492
ag493
ag494
ag495
ag477
ag478
ag479
ag480
ag481
ag482
ag483
ag484
ag485
ag486
ag487
ag488
ag489
ag490
ag491
ag492
ag493
ag494
ag495
ag478
ag479
ag480
ag481
ag482
ag483
ag484
ag485
ag486
ag487
ag488
ag489
ag490
ag491
ag492
ag493
ag494
ag495
ag479
ag480
ag481
ag482
ag483
ag484
ag485
ag486
ag487
ag488
ag489
ag490
ag491
ag492
ag493
ag494
ag495
ag480
ag481
ag482
ag483
ag484
ag485
ag486
ag487
ag488
ag489
ag490
ag491
ag492
ag493
ag494
ag495
ag481
ag482
ag483
ag484
ag485
ag486
ag487
ag488
ag489
ag490
ag491
ag492
ag493
ag494
ag495
ag482
ag483
ag484
ag485
ag486
ag487
ag488
ag489
ag490
ag491
ag492
ag493
ag494
ag495
ag483
ag484
ag485
ag486
ag487
ag488
ag489
ag490
ag491
ag492
ag493
ag494
ag495
ag484
ag485
ag486
ag487
ag488
ag489
ag490
ag491
ag492
ag493
ag494
ag495
ag485
ag486
ag487
ag488
ag489
ag490
ag491
ag492
ag493
ag494
ag495
ag486
ag487
ag488
ag489
ag490
ag491
ag492
ag493
ag494
ag495
ag487
ag488
ag489
ag490
ag491
ag492
ag493
ag494
ag495
ag488
ag489
ag490
ag491
ag492
ag493
ag494
ag495
ag489
ag490
ag491
ag492
ag493
ag494
ag495
ag490
ag491
ag492
ag493
ag494
ag495
ag491
ag492
ag493
ag494
ag495
ag492
ag493
ag494
ag495
ag493
ag494
ag495
ag494
ag495
ag495
aS'small'
p496
aS'small'
p497
aS'small'
p498
aS'small'
p499
aS'small'
p500
aS'small'
p501
aS'small'
p502
aS'small'
p503
aS'small'
p504
aS'small'
p505
aS'small'
p506
aS'small'
p507
aS'small'
p508
aS'small'
p509
aS'small'
p510
aS'small'
p511
aS'small'
p512
aS'small'
p513
aS'small'
p514
aS'small'
p515
aS'small'
p516
aS'small'
p517
aS'small'
p518
ag497
ag498
ag499
ag500
ag501
ag502
ag503
ag504
ag505
ag506
ag507
ag508
ag509
ag510
ag511
ag512
ag513
ag514
ag515
ag516
ag517
ag518
ag498
ag499
ag500
ag501
ag502
ag503
ag504
ag505
ag506
ag507
ag508
ag509
ag510
ag511
ag512
ag513
ag514
ag515
ag516
ag517
ag518
ag499
ag500
ag501
ag502
ag503
ag504
ag505
ag506
ag507
ag508
ag509
ag510
ag511
ag512
ag513
ag514
ag515
ag516
ag517
ag518
ag500
ag501
ag502
ag503
ag504
ag505
ag506
ag507
ag508
ag509
ag510
ag511
ag512
ag513
ag514
ag515
ag516
ag517
ag518
ag501
ag502
ag503
ag504
ag505
ag506
ag507
ag508
ag509
ag510
ag511
ag512
ag513
ag514
ag515
ag516
ag517
ag518
ag502
ag503
ag504
ag505
ag506
ag507
ag508
ag509
ag510
ag511
ag512
ag513
ag514
ag515
ag516
ag517
ag518
ag503
ag504
ag505
ag506
ag507
ag508
ag509
ag510
ag511
ag512
ag513
ag514
ag515
ag516
ag517
ag518
ag504
ag505
ag506
ag507
ag508
ag509
ag510
ag511
ag512
ag513
ag514
ag515
ag516
ag517
ag518
ag505
ag506
ag507
ag508
ag509
ag510
ag511
ag512
ag513
ag514
ag515
ag516
ag517
ag518
ag506
ag507
ag508
ag509
ag510
ag511
ag512
ag513
ag514
ag515
ag516
ag517
ag518
ag507
ag508
ag509
ag510
ag511
ag512
ag513
ag514
ag515
ag516
ag517
ag518
ag508
ag509
ag510
ag511
ag512
ag513
ag514
ag515
ag516
ag517
ag518
ag509
ag510
ag511
ag512
ag513
ag514
ag515
ag516
ag517
ag518
ag510
ag511
ag512
ag513
ag514
ag515
ag516
ag517
ag518
ag511
ag512
ag513
ag514
ag515
ag516
ag517
ag518
ag512
ag513
ag514
ag515
ag516
ag517
ag518
ag513
ag514
ag515
ag516
ag517
ag518
ag514
ag515
ag516
ag517
ag518
ag515
ag516
ag517
ag518
ag516
ag517
ag518
ag517
ag518
ag518
aS'claw'
p519
aS'claw'
p520
aS'claw'
p521
aS'claw'
p522
aS'claw'
p523
aS'claw'
p524
aS'claw'
p525
aS'claw'
p526
aS'claw'
p527
aS'claw'
p528
aS'claw'
p529
aS'claw'
p530
aS'claw'
p531
aS'claw'
p532
aS'claw'
p533
aS'claw'
p534
aS'claw'
p535
aS'claw'
p536
aS'claw'
p537
aS'claw'
p538
aS'claw'
p539
ag520
ag521
ag522
ag523
ag524
ag525
ag526
ag527
ag528
ag529
ag530
ag531
ag532
ag533
ag534
ag535
ag536
ag537
ag538
ag539
ag521
ag522
ag523
ag524
ag525
ag526
ag527
ag528
ag529
ag530
ag531
ag532
ag533
ag534
ag535
ag536
ag537
ag538
ag539
ag522
ag523
ag524
ag525
ag526
ag527
ag528
ag529
ag530
ag531
ag532
ag533
ag534
ag535
ag536
ag537
ag538
ag539
ag523
ag524
ag525
ag526
ag527
ag528
ag529
ag530
ag531
ag532
ag533
ag534
ag535
ag536
ag537
ag538
ag539
ag524
ag525
ag526
ag527
ag528
ag529
ag530
ag531
ag532
ag533
ag534
ag535
ag536
ag537
ag538
ag539
ag525
ag526
ag527
ag528
ag529
ag530
ag531
ag532
ag533
ag534
ag535
ag536
ag537
ag538
ag539
ag526
ag527
ag528
ag529
ag530
ag531
ag532
ag533
ag534
ag535
ag536
ag537
ag538
ag539
ag527
ag528
ag529
ag530
ag531
ag532
ag533
ag534
ag535
ag536
ag537
ag538
ag539
ag528
ag529
ag530
ag531
ag532
ag533
ag534
ag535
ag536
ag537
ag538
ag539
ag529
ag530
ag531
ag532
ag533
ag534
ag535
ag536
ag537
ag538
ag539
ag530
ag531
ag532
ag533
ag534
ag535
ag536
ag537
ag538
ag539
ag531
ag532
ag533
ag534
ag535
ag536
ag537
ag538
ag539
ag532
ag533
ag534
ag535
ag536
ag537
ag538
ag539
ag533
ag534
ag535
ag536
ag537
ag538
ag539
ag534
ag535
ag536
ag537
ag538
ag539
ag535
ag536
ag537
ag538
ag539
ag536
ag537
ag538
ag539
ag537
ag538
ag539
ag538
ag539
ag539
aS'round'
p540
aS'round'
p541
aS'round'
p542
aS'round'
p543
aS'round'
p544
aS'round'
p545
aS'round'
p546
aS'round'
p547
aS'round'
p548
aS'round'
p549
aS'round'
p550
aS'round'
p551
aS'round'
p552
aS'round'
p553
aS'round'
p554
aS'round'
p555
aS'round'
p556
aS'round'
p557
aS'round'
p558
aS'round'
p559
aS'round'
p560
aS'round'
p561
ag541
ag542
ag543
ag544
ag545
ag546
ag547
ag548
ag549
ag550
ag551
ag552
ag553
ag554
ag555
ag556
ag557
ag558
ag559
ag560
ag561
ag542
ag543
ag544
ag545
ag546
ag547
ag548
ag549
ag550
ag551
ag552
ag553
ag554
ag555
ag556
ag557
ag558
ag559
ag560
ag561
ag543
ag544
ag545
ag546
ag547
ag548
ag549
ag550
ag551
ag552
ag553
ag554
ag555
ag556
ag557
ag558
ag559
ag560
ag561
ag544
ag545
ag546
ag547
ag548
ag549
ag550
ag551
ag552
ag553
ag554
ag555
ag556
ag557
ag558
ag559
ag560
ag561
ag545
ag546
ag547
ag548
ag549
ag550
ag551
ag552
ag553
ag554
ag555
ag556
ag557
ag558
ag559
ag560
ag561
ag546
ag547
ag548
ag549
ag550
ag551
ag552
ag553
ag554
ag555
ag556
ag557
ag558
ag559
ag560
ag561
ag547
ag548
ag549
ag550
ag551
ag552
ag553
ag554
ag555
ag556
ag557
ag558
ag559
ag560
ag561
ag548
ag549
ag550
ag551
ag552
ag553
ag554
ag555
ag556
ag557
ag558
ag559
ag560
ag561
ag549
ag550
ag551
ag552
ag553
ag554
ag555
ag556
ag557
ag558
ag559
ag560
ag561
ag550
ag551
ag552
ag553
ag554
ag555
ag556
ag557
ag558
ag559
ag560
ag561
ag551
ag552
ag553
ag554
ag555
ag556
ag557
ag558
ag559
ag560
ag561
ag552
ag553
ag554
ag555
ag556
ag557
ag558
ag559
ag560
ag561
ag553
ag554
ag555
ag556
ag557
ag558
ag559
ag560
ag561
ag554
ag555
ag556
ag557
ag558
ag559
ag560
ag561
ag555
ag556
ag557
ag558
ag559
ag560
ag561
ag556
ag557
ag558
ag559
ag560
ag561
ag557
ag558
ag559
ag560
ag561
ag558
ag559
ag560
ag561
ag559
ag560
ag561
ag560
ag561
ag561
aS'bone'
p562
aS'bone'
p563
aS'bone'
p564
aS'bone'
p565
aS'bone'
p566
aS'bone'
p567
aS'bone'
p568
aS'bone'
p569
aS'bone'
p570
aS'bone'
p571
aS'bone'
p572
aS'bone'
p573
aS'bone'
p574
aS'bone'
p575
aS'bone'
p576
aS'bone'
p577
aS'bone'
p578
aS'bone'
p579
aS'bone'
p580
aS'bone'
p581
aS'bone'
p582
aS'bone'
p583
aS'bone'
p584
ag563
ag564
ag565
ag566
ag567
ag568
ag569
ag570
ag571
ag572
ag573
ag574
ag575
ag576
ag577
ag578
ag579
ag580
ag581
ag582
ag583
ag584
ag564
ag565
ag566
ag567
ag568
ag569
ag570
ag571
ag572
ag573
ag574
ag575
ag576
ag577
ag578
ag579
ag580
ag581
ag582
ag583
ag584
ag565
ag566
ag567
ag568
ag569
ag570
ag571
ag572
ag573
ag574
ag575
ag576
ag577
ag578
ag579
ag580
ag581
ag582
ag583
ag584
ag566
ag567
ag568
ag569
ag570
ag571
ag572
ag573
ag574
ag575
ag576
ag577
ag578
ag579
ag580
ag581
ag582
ag583
ag584
ag567
ag568
ag569
ag570
ag571
ag572
ag573
ag574
ag575
ag576
ag577
ag578
ag579
ag580
ag581
ag582
ag583
ag584
ag568
ag569
ag570
ag571
ag572
ag573
ag574
ag575
ag576
ag577
ag578
ag579
ag580
ag581
ag582
ag583
ag584
ag569
ag570
ag571
ag572
ag573
ag574
ag575
ag576
ag577
ag578
ag579
ag580
ag581
ag582
ag583
ag584
ag570
ag571
ag572
ag573
ag574
ag575
ag576
ag577
ag578
ag579
ag580
ag581
ag582
ag583
ag584
ag571
ag572
ag573
ag574
ag575
ag576
ag577
ag578
ag579
ag580
ag581
ag582
ag583
ag584
ag572
ag573
ag574
ag575
ag576
ag577
ag578
ag579
ag580
ag581
ag582
ag583
ag584
ag573
ag574
ag575
ag576
ag577
ag578
ag579
ag580
ag581
ag582
ag583
ag584
ag574
ag575
ag576
ag577
ag578
ag579
ag580
ag581
ag582
ag583
ag584
ag575
ag576
ag577
ag578
ag579
ag580
ag581
ag582
ag583
ag584
ag576
ag577
ag578
ag579
ag580
ag581
ag582
ag583
ag584
ag577
ag578
ag579
ag580
ag581
ag582
ag583
ag584
ag578
ag579
ag580
ag581
ag582
ag583
ag584
ag579
ag580
ag581
ag582
ag583
ag584
ag580
ag581
ag582
ag583
ag584
ag581
ag582
ag583
ag584
ag582
ag583
ag584
ag583
ag584
ag584
aS'kill'
p585
aS'kill'
p586
aS'kill'
p587
aS'kill'
p588
aS'kill'
p589
aS'kill'
p590
aS'kill'
p591
aS'kill'
p592
aS'kill'
p593
aS'kill'
p594
aS'kill'
p595
aS'kill'
p596
aS'kill'
p597
aS'kill'
p598
aS'kill'
p599
aS'kill'
p600
aS'kill'
p601
aS'kill'
p602
aS'kill'
p603
aS'kill'
p604
aS'kill'
p605
aS'kill'
p606
ag586
ag587
ag588
ag589
ag590
ag591
ag592
ag593
ag594
ag595
ag596
ag597
ag598
ag599
ag600
ag601
ag602
ag603
ag604
ag605
ag606
ag587
ag588
ag589
ag590
ag591
ag592
ag593
ag594
ag595
ag596
ag597
ag598
ag599
ag600
ag601
ag602
ag603
ag604
ag605
ag606
ag588
ag589
ag590
ag591
ag592
ag593
ag594
ag595
ag596
ag597
ag598
ag599
ag600
ag601
ag602
ag603
ag604
ag605
ag606
ag589
ag590
ag591
ag592
ag593
ag594
ag595
ag596
ag597
ag598
ag599
ag600
ag601
ag602
ag603
ag604
ag605
ag606
ag590
ag591
ag592
ag593
ag594
ag595
ag596
ag597
ag598
ag599
ag600
ag601
ag602
ag603
ag604
ag605
ag606
ag591
ag592
ag593
ag594
ag595
ag596
ag597
ag598
ag599
ag600
ag601
ag602
ag603
ag604
ag605
ag606
ag592
ag593
ag594
ag595
ag596
ag597
ag598
ag599
ag600
ag601
ag602
ag603
ag604
ag605
ag606
ag593
ag594
ag595
ag596
ag597
ag598
ag599
ag600
ag601
ag602
ag603
ag604
ag605
ag606
ag594
ag595
ag596
ag597
ag598
ag599
ag600
ag601
ag602
ag603
ag604
ag605
ag606
ag595
ag596
ag597
ag598
ag599
ag600
ag601
ag602
ag603
ag604
ag605
ag606
ag596
ag597
ag598
ag599
ag600
ag601
ag602
ag603
ag604
ag605
ag606
ag597
ag598
ag599
ag600
ag601
ag602
ag603
ag604
ag605
ag606
ag598
ag599
ag600
ag601
ag602
ag603
ag604
ag605
ag606
ag599
ag600
ag601
ag602
ag603
ag604
ag605
ag606
ag600
ag601
ag602
ag603
ag604
ag605
ag606
ag601
ag602
ag603
ag604
ag605
ag606
ag602
ag603
ag604
ag605
ag606
ag603
ag604
ag605
ag606
ag604
ag605
ag606
ag605
ag606
ag606
aS'fish'
p607
aS'fish'
p608
aS'fish'
p609
aS'fish'
p610
aS'fish'
p611
aS'fish'
p612
aS'fish'
p613
aS'fish'
p614
aS'fish'
p615
aS'fish'
p616
aS'fish'
p617
aS'fish'
p618
aS'fish'
p619
aS'fish'
p620
aS'fish'
p621
aS'fish'
p622
aS'fish'
p623
aS'fish'
p624
aS'fish'
p625
aS'fish'
p626
aS'fish'
p627
aS'fish'
p628
aS'fish'
p629
ag608
ag609
ag610
ag611
ag612
ag613
ag614
ag615
ag616
ag617
ag618
ag619
ag620
ag621
ag622
ag623
ag624
ag625
ag626
ag607
ag628
ag629
ag609
ag610
ag611
ag612
ag613
ag614
ag615
ag616
ag617
ag618
ag619
ag620
ag621
ag622
ag623
ag624
ag625
ag626
ag608
ag628
ag629
ag610
ag611
ag612
ag613
ag614
ag615
ag616
ag617
ag618
ag619
ag620
ag621
ag622
ag623
ag624
ag625
ag626
ag609
ag628
ag629
ag611
ag612
ag613
ag614
ag615
ag616
ag617
ag618
ag619
ag620
ag621
ag622
ag623
ag624
ag625
ag626
ag610
ag628
ag629
ag612
ag613
ag614
ag615
ag616
ag617
ag618
ag619
ag620
ag621
ag622
ag623
ag624
ag625
ag626
ag611
ag628
ag629
ag613
ag614
ag615
ag616
ag617
ag618
ag619
ag620
ag621
ag622
ag623
ag624
ag625
ag626
ag612
ag628
ag629
ag614
ag615
ag616
ag617
ag618
ag619
ag620
ag621
ag622
ag623
ag624
ag625
ag626
ag613
ag628
ag629
ag615
ag616
ag617
ag618
ag619
ag620
ag621
ag622
ag623
ag624
ag625
ag626
ag614
ag628
ag629
ag616
ag617
ag618
ag619
ag620
ag621
ag622
ag623
ag624
ag625
ag626
ag615
ag628
ag629
ag617
ag618
ag619
ag620
ag621
ag622
ag623
ag624
ag625
ag626
ag616
ag628
ag629
ag618
ag619
ag620
ag621
ag622
ag623
ag624
ag625
ag626
ag617
ag628
ag629
ag619
ag620
ag621
ag622
ag623
ag624
ag625
ag626
ag618
ag628
ag629
ag620
ag621
ag622
ag623
ag624
ag625
ag626
ag619
ag628
ag629
ag621
ag622
ag623
ag624
ag625
ag626
ag620
ag628
ag629
ag622
ag623
ag624
ag625
ag626
ag621
ag628
ag629
ag623
ag624
ag625
ag626
ag622
ag628
ag629
ag624
ag625
ag626
ag623
ag628
ag629
ag625
ag626
ag624
ag628
ag629
ag626
ag625
ag628
ag629
ag626
ag628
ag629
ag628
ag629
ag629
aS'horn'
p630
aS'horn'
p631
aS'horn'
p632
aS'horn'
p633
aS'horn'
p634
aS'horn'
p635
aS'horn'
p636
aS'horn'
p637
aS'horn'
p638
aS'horn'
p639
aS'horn'
p640
aS'horn'
p641
aS'horn'
p642
aS'horn'
p643
aS'horn'
p644
aS'horn'
p645
aS'horn'
p646
aS'horn'
p647
ag631
ag632
ag633
ag634
ag635
ag636
ag637
ag638
ag639
ag640
ag641
ag642
ag643
ag644
ag645
ag646
ag647
ag632
ag633
ag634
ag635
ag636
ag637
ag638
ag639
ag640
ag641
ag642
ag643
ag644
ag645
ag646
ag647
ag633
ag634
ag635
ag636
ag637
ag638
ag639
ag640
ag641
ag642
ag643
ag644
ag645
ag646
ag647
ag634
ag635
ag636
ag637
ag638
ag639
ag640
ag641
ag642
ag643
ag644
ag645
ag646
ag647
ag635
ag636
ag637
ag638
ag639
ag640
ag641
ag642
ag643
ag644
ag645
ag646
ag647
ag636
ag637
ag638
ag639
ag640
ag641
ag642
ag643
ag644
ag645
ag646
ag647
ag637
ag638
ag639
ag640
ag641
ag642
ag643
ag644
ag645
ag646
ag647
ag638
ag639
ag640
ag641
ag642
ag643
ag644
ag645
ag646
ag647
ag639
ag640
ag641
ag642
ag643
ag644
ag645
ag646
ag647
ag640
ag641
ag642
ag643
ag644
ag645
ag646
ag647
ag641
ag642
ag643
ag644
ag645
ag646
ag647
ag642
ag643
ag644
ag645
ag646
ag647
ag643
ag644
ag645
ag646
ag647
ag644
ag645
ag646
ag647
ag645
ag646
ag647
ag646
ag647
ag647
aS'hair'
p648
aS'hair'
p649
ag649
aS'hair'
p650
aS'hair'
p651
aS'hair'
p652
aS'hair'
p653
aS'hair'
p654
aS'hair'
p655
aS'hair'
p656
aS'hair'
p657
aS'hair'
p658
ag649
aS'hair'
p659
aS'hair'
p660
ag649
aS'hair'
p661
aS'hair'
p662
ag649
ag649
aS'hair'
p663
ag649
aS'hair'
p664
ag648
ag648
ag650
ag651
ag652
ag653
ag654
ag655
ag656
ag657
ag658
ag648
ag659
ag660
ag648
ag661
ag662
ag648
ag648
ag663
ag648
ag664
aS'hair'
p665
ag650
ag651
ag652
ag653
ag654
ag655
ag656
ag657
ag658
aS'hair'
p666
ag659
ag660
aS'hair'
p667
ag661
ag662
aS'hair'
p668
aS'hair'
p669
ag663
aS'hair'
p670
ag664
ag650
ag651
ag652
ag653
ag654
ag655
ag656
ag657
ag658
ag666
ag659
ag660
ag667
ag661
ag662
ag668
ag669
ag663
ag670
ag664
ag651
ag652
ag653
ag654
ag655
ag656
ag657
ag658
ag650
ag659
ag660
ag650
ag661
ag662
ag650
ag650
ag663
ag650
ag664
ag652
ag653
ag654
ag655
ag656
ag657
ag658
ag651
ag659
ag660
ag651
ag661
ag662
ag651
ag651
ag663
ag651
ag664
ag653
ag654
ag655
ag656
ag657
ag658
ag652
ag659
ag660
ag652
ag661
ag662
ag652
ag652
ag663
ag652
ag664
ag654
ag655
ag656
ag657
ag658
ag653
ag659
ag660
ag653
ag661
ag662
ag653
ag653
ag663
ag653
ag664
ag655
ag656
ag657
ag658
ag654
ag659
ag660
ag654
ag661
ag662
ag654
ag654
ag663
ag654
ag664
ag656
ag657
ag658
ag655
ag659
ag660
ag655
ag661
ag662
ag655
ag655
ag663
ag655
ag664
ag657
ag658
ag656
ag659
ag660
ag656
ag661
ag662
ag656
ag656
ag663
ag656
ag664
ag658
ag657
ag659
ag660
ag657
ag661
ag662
ag657
ag657
ag663
ag657
ag664
ag658
ag659
ag660
ag658
ag661
ag662
ag658
ag658
ag663
ag658
ag664
ag659
ag660
ag667
ag661
ag662
ag668
ag669
ag663
ag670
ag664
ag660
ag659
ag661
ag662
ag659
ag659
ag663
ag659
ag664
ag660
ag661
ag662
ag660
ag660
ag663
ag660
ag664
ag661
ag662
ag668
ag669
ag663
ag670
ag664
ag662
ag661
ag661
ag663
ag661
ag664
ag662
ag662
ag663
ag662
ag664
ag669
ag663
ag670
ag664
ag663
ag670
ag664
ag663
ag664
ag664
aS'see'
p671
aS'see'
p672
aS'see'
p673
aS'see'
p674
aS'see'
p675
aS'see'
p676
aS'see'
p677
aS'see'
p678
aS'see'
p679
aS'see'
p680
aS'see'
p681
aS'see'
p682
ag677
aS'see'
p683
aS'see'
p684
aS'see'
p685
aS'see'
p686
aS'see'
p687
aS'see'
p688
aS'see'
p689
aS'see'
p690
ag672
ag673
ag674
ag675
ag676
ag671
ag678
ag679
ag680
ag681
ag682
ag671
ag683
ag684
ag685
ag686
ag687
ag688
ag689
ag690
ag673
ag674
ag675
ag676
ag672
ag678
ag679
ag680
ag681
ag682
ag672
ag683
ag684
ag685
ag686
ag687
ag688
ag689
ag690
ag674
ag675
ag676
ag673
ag678
ag679
ag680
ag681
ag682
ag673
ag683
ag684
ag685
ag686
ag687
ag688
ag689
ag690
ag675
ag676
ag674
ag678
ag679
ag680
ag681
ag682
ag674
ag683
ag684
ag685
ag686
ag687
ag688
ag689
ag690
ag676
ag675
ag678
ag679
ag680
ag681
ag682
ag675
ag683
ag684
ag685
ag686
ag687
ag688
ag689
ag690
ag676
ag678
ag679
ag680
ag681
ag682
ag676
ag683
ag684
ag685
ag686
ag687
ag688
ag689
ag690
ag678
ag679
ag680
ag681
ag682
aS'see'
p691
ag683
ag684
ag685
ag686
ag687
ag688
ag689
ag690
ag679
ag680
ag681
ag682
ag678
ag683
ag684
ag685
ag686
ag687
ag688
ag689
ag690
ag680
ag681
ag682
ag679
ag683
ag684
ag685
ag686
ag687
ag688
ag689
ag690
ag681
ag682
ag680
ag683
ag684
ag685
ag686
ag687
ag688
ag689
ag690
ag682
ag681
ag683
ag684
ag685
ag686
ag687
ag688
ag689
ag690
ag682
ag683
ag684
ag685
ag686
ag687
ag688
ag689
ag690
ag683
ag684
ag685
ag686
ag687
ag688
ag689
ag690
ag684
ag685
ag686
ag687
ag688
ag689
ag690
ag685
ag686
ag687
ag688
ag689
ag690
ag686
ag687
ag688
ag689
ag690
ag687
ag688
ag689
ag690
ag688
ag689
ag690
ag689
ag690
ag690
aS'full'
p692
aS'full'
p693
aS'full'
p694
aS'full'
p695
aS'full'
p696
aS'full'
p697
aS'full'
p698
aS'full'
p699
aS'full'
p700
aS'full'
p701
aS'full'
p702
aS'full'
p703
aS'full'
p704
aS'full'
p705
aS'full'
p706
aS'full'
p707
aS'full'
p708
aS'full'
p709
aS'full'
p710
aS'full'
p711
aS'full'
p712
aS'full'
p713
aS'full'
p714
ag693
ag694
ag695
ag696
ag697
ag698
ag699
ag700
ag701
ag702
ag703
ag704
ag705
ag706
ag707
ag708
ag709
ag710
ag711
ag712
ag713
ag714
ag694
ag695
ag696
ag697
ag698
ag699
ag700
ag701
ag702
ag703
ag704
ag705
ag706
ag707
ag708
ag709
ag710
ag711
ag712
ag713
ag714
ag695
ag696
ag697
ag698
ag699
ag700
ag701
ag702
ag703
ag704
ag705
ag706
ag707
ag708
ag709
ag710
ag711
ag712
ag713
ag714
ag696
ag697
ag698
ag699
ag700
ag701
ag702
ag703
ag704
ag705
ag706
ag707
ag708
ag709
ag710
ag711
ag712
ag713
ag714
ag697
ag698
ag699
ag700
ag701
ag702
ag703
ag704
ag705
ag706
ag707
ag708
ag709
ag710
ag711
ag712
ag713
ag714
ag698
ag699
ag700
ag701
ag702
ag703
ag704
ag705
ag706
ag707
ag708
ag709
ag710
ag711
ag712
ag713
ag714
ag699
ag700
ag701
ag702
ag703
ag704
ag705
ag706
ag707
ag708
ag709
ag710
ag711
ag712
ag713
ag714
ag700
ag701
ag702
ag703
ag704
ag705
ag706
ag707
ag708
ag709
ag710
ag711
ag712
ag713
ag714
ag701
ag702
ag703
ag704
ag705
ag706
ag707
ag708
ag709
ag710
ag711
ag712
ag713
ag714
ag702
ag703
ag704
ag705
ag706
ag707
ag708
ag709
ag710
ag711
ag712
ag713
ag714
ag703
ag704
ag705
ag706
ag707
ag708
ag709
ag710
ag711
ag712
ag713
ag714
ag704
ag705
ag706
ag707
ag708
ag709
ag710
ag711
ag712
ag713
ag714
ag705
ag706
ag707
ag708
ag709
ag710
ag711
ag712
ag713
ag714
ag706
ag707
ag708
ag709
ag710
ag711
ag712
ag713
ag714
ag707
ag708
ag709
ag710
ag711
ag712
ag713
ag714
ag708
ag709
ag710
ag711
ag712
ag713
ag714
ag709
ag710
ag711
ag712
ag713
ag714
ag710
ag711
ag712
ag713
ag714
ag711
ag712
ag713
ag714
ag712
ag713
ag714
ag713
ag714
ag714
aS'bark'
p715
aS'bark'
p716
aS'bark'
p717
aS'bark'
p718
aS'bark'
p719
aS'bark'
p720
aS'bark'
p721
aS'bark'
p722
aS'bark'
p723
aS'bark'
p724
aS'bark'
p725
aS'bark'
p726
aS'bark'
p727
aS'bark'
p728
aS'bark'
p729
aS'bark'
p730
aS'bark'
p731
aS'bark'
p732
aS'bark'
p733
aS'bark'
p734
ag716
ag717
ag718
ag719
ag720
ag721
ag722
ag723
ag724
ag725
ag726
ag727
ag728
ag729
ag730
ag731
ag732
ag733
ag734
ag717
ag718
ag719
ag720
ag721
ag722
ag723
ag724
ag725
ag726
ag727
ag728
ag729
ag730
ag731
ag732
ag733
ag734
ag718
ag719
ag720
ag721
ag722
ag723
ag724
ag725
ag726
ag727
ag728
ag729
ag730
ag731
ag732
ag733
ag734
ag719
ag720
ag721
ag722
ag723
ag724
ag725
ag726
ag727
ag728
ag729
ag730
ag731
ag732
ag733
ag734
ag720
ag721
ag722
ag723
ag724
ag725
ag726
ag727
ag728
ag729
ag730
ag731
ag732
ag733
ag734
ag721
ag722
ag723
ag724
ag725
ag726
ag727
ag728
ag729
ag730
ag731
ag732
ag733
ag734
ag722
ag723
ag724
ag725
ag726
ag727
ag728
ag729
ag730
ag731
ag732
ag733
ag734
ag723
ag724
ag725
ag726
ag727
ag728
ag729
ag730
ag731
ag732
ag733
ag734
ag724
ag725
ag726
ag727
ag728
ag729
ag730
ag731
ag732
ag733
ag734
ag725
ag726
ag727
ag728
ag729
ag730
ag731
ag732
ag733
ag734
ag726
ag727
ag728
ag729
ag730
ag731
ag732
ag733
ag734
ag727
ag728
ag729
ag730
ag731
ag732
ag733
ag734
ag728
ag729
ag730
ag731
ag732
ag733
ag734
ag729
ag730
ag731
ag732
ag733
ag734
ag730
ag731
ag732
ag733
ag734
ag731
ag732
ag733
ag734
ag732
ag733
ag734
ag733
ag734
ag734
aS'what'
p735
aS'what'
p736
aS'what'
p737
aS'what'
p738
aS'what'
p739
aS'what'
p740
aS'what'
p741
aS'what'
p742
aS'what'
p743
aS'what'
p744
aS'what'
p745
aS'what'
p746
aS'what'
p747
aS'what'
p748
aS'what'
p749
aS'what'
p750
aS'what'
p751
aS'what'
p752
aS'what'
p753
aS'what'
p754
aS'what'
p755
ag736
ag737
ag738
ag739
ag740
ag741
ag742
ag743
ag744
ag745
ag746
ag735
ag748
ag749
ag750
ag751
ag752
ag753
ag754
ag755
ag737
ag738
ag739
ag740
ag741
ag742
ag743
ag744
ag745
ag746
ag736
ag748
ag749
ag750
ag751
ag752
ag753
ag754
ag755
ag738
ag739
ag740
ag741
ag742
ag743
ag744
ag745
ag746
ag737
ag748
ag749
ag750
ag751
ag752
ag753
ag754
ag755
ag739
ag740
ag741
ag742
ag743
ag744
ag745
ag746
ag738
ag748
ag749
ag750
ag751
ag752
ag753
ag754
ag755
ag740
ag741
ag742
ag743
ag744
ag745
ag746
ag739
ag748
ag749
ag750
ag751
ag752
ag753
ag754
ag755
ag741
ag742
ag743
ag744
ag745
ag746
ag740
ag748
ag749
ag750
ag751
ag752
ag753
ag754
ag755
ag742
ag743
ag744
ag745
ag746
ag741
ag748
ag749
ag750
ag751
ag752
ag753
ag754
ag755
ag743
ag744
ag745
ag746
ag742
ag748
ag749
ag750
ag751
ag752
ag753
ag754
ag755
ag744
ag745
ag746
ag743
ag748
ag749
ag750
ag751
ag752
ag753
ag754
ag755
ag745
ag746
ag744
ag748
ag749
ag750
ag751
ag752
ag753
ag754
ag755
ag746
ag745
ag748
ag749
ag750
ag751
ag752
ag753
ag754
ag755
ag746
ag748
ag749
ag750
ag751
ag752
ag753
ag754
ag755
ag748
ag749
ag750
ag751
ag752
ag753
ag754
ag755
ag749
ag750
ag751
ag752
ag753
ag754
ag755
ag750
ag751
ag752
ag753
ag754
ag755
ag751
ag752
ag753
ag754
ag755
ag752
ag753
ag754
ag755
ag753
ag754
ag755
ag754
ag755
ag755
aS'white'
p756
aS'leaf'
p757
aS'leaf'
p758
aS'leaf'
p759
aS'white'
p760
aS'white'
p761
aS'white'
p762
aS'leaf'
p763
aS'leaf'
p764
aS'leaf'
p765
aS'leaf'
p766
aS'white'
p767
aS'leaf'
p768
aS'leaf'
p769
aS'leaf'
p770
aS'white'
p771
aS'leaf'
p772
aS'leaf'
p773
aS'leaf'
p774
aS'white'
p775
aS'leaf'
p776
aS'white'
p777
aS'leaf'
p778
ag757
ag758
ag759
ag760
ag761
ag762
ag763
ag764
ag765
ag766
ag767
ag768
ag769
ag770
ag771
ag772
ag773
ag774
ag775
ag776
ag777
ag778
ag758
ag759
ag757
ag757
ag757
ag763
ag764
ag765
ag766
ag757
ag768
ag769
ag770
ag757
ag772
ag773
ag774
ag757
ag776
ag757
ag778
ag759
ag758
ag758
ag758
ag763
ag764
ag765
ag766
ag758
ag768
ag769
ag770
ag758
ag772
ag773
ag774
ag758
ag776
ag758
ag778
ag759
ag759
ag759
ag763
ag764
ag765
ag766
ag759
ag768
ag769
ag770
ag759
ag772
ag773
ag774
ag759
ag776
ag759
ag778
ag761
ag762
ag763
ag764
ag765
ag766
ag767
ag768
ag769
ag770
ag771
ag772
ag773
ag774
ag775
ag776
ag777
ag778
ag762
ag763
ag764
ag765
ag766
ag767
ag768
ag769
ag770
ag771
ag772
ag773
ag774
ag775
ag776
ag777
ag778
ag763
ag764
ag765
ag766
ag767
ag768
ag769
ag770
ag771
ag772
ag773
ag774
ag775
ag776
ag777
ag778
ag764
ag765
ag766
ag763
ag768
ag769
ag770
ag763
ag772
ag773
ag774
ag763
ag776
ag763
ag778
ag765
ag766
ag764
ag768
ag769
ag770
ag764
ag772
ag773
ag774
ag764
ag776
ag764
ag778
ag766
ag765
ag768
ag769
ag770
ag765
ag772
ag773
ag774
ag765
ag776
ag765
ag778
ag766
ag768
ag769
ag770
ag766
ag772
ag773
ag774
ag766
ag776
ag766
ag778
ag768
ag769
ag770
ag771
ag772
ag773
ag774
ag775
ag776
ag777
ag778
ag769
ag770
ag768
ag772
ag773
ag774
ag768
ag776
ag768
ag778
ag770
ag769
ag772
ag773
ag774
ag769
ag776
ag769
ag778
ag770
ag772
ag773
ag774
ag770
ag776
ag770
ag778
ag772
ag773
ag774
ag775
ag776
ag777
ag778
ag773
ag774
ag772
ag776
ag772
ag778
ag774
ag773
ag776
ag773
ag778
ag774
ag776
ag774
ag778
ag776
ag777
ag778
ag776
ag778
ag778
aS'sun'
p779
aS'sun'
p780
aS'sun'
p781
aS'sun'
p782
aS'sun'
p783
aS'sun'
p784
aS'sun'
p785
aS'sun'
p786
aS'sun'
p787
aS'sun'
p788
aS'sun'
p789
aS'sun'
p790
aS'sun'
p791
aS'sun'
p792
aS'sun'
p793
aS'sun'
p794
aS'sun'
p795
aS'sun'
p796
aS'sun'
p797
aS'sun'
p798
aS'sun'
p799
aS'sun'
p800
aS'sun'
p801
ag780
ag781
ag782
ag783
ag784
ag785
ag786
ag787
ag788
ag789
ag790
ag791
ag792
ag793
ag794
ag795
ag796
ag797
ag798
ag799
ag800
ag801
ag781
ag782
ag783
ag784
ag785
ag786
ag787
ag788
ag789
ag790
ag791
ag792
ag793
ag794
ag795
ag796
ag797
ag798
ag799
ag800
ag801
ag782
ag783
ag784
ag785
ag786
ag787
ag788
ag789
ag790
ag791
ag792
ag793
ag794
ag795
ag796
ag797
ag798
ag799
ag800
ag801
ag783
ag784
ag785
ag786
ag787
ag788
ag789
ag790
ag791
ag792
ag793
ag794
ag795
ag796
ag797
ag798
ag799
ag800
ag801
ag784
ag785
ag786
ag787
ag788
ag789
ag790
ag791
ag792
ag793
ag794
ag795
ag796
ag797
ag798
ag799
ag800
ag801
ag785
ag786
ag787
ag788
ag789
ag790
ag791
ag792
ag793
ag794
ag795
ag796
ag797
ag798
ag799
ag800
ag801
ag786
ag787
ag788
ag789
ag790
ag791
ag792
ag793
ag794
ag795
ag796
ag797
ag798
ag799
ag800
ag801
ag787
ag788
ag789
ag790
ag791
ag792
ag793
ag794
ag795
ag796
ag797
ag798
ag799
ag800
ag801
ag788
ag789
ag790
ag791
ag792
ag793
ag794
ag795
ag796
ag797
ag798
ag799
ag800
ag801
ag789
ag790
ag791
ag792
ag793
ag794
ag795
ag796
ag797
ag798
ag799
ag800
ag801
ag790
ag791
ag792
ag793
ag794
ag795
ag796
ag797
ag798
ag799
ag800
ag801
ag791
ag792
ag793
ag794
ag795
ag796
ag797
ag798
ag799
ag800
ag801
ag792
ag793
ag794
ag795
ag796
ag797
ag798
ag799
ag800
ag801
ag793
ag794
ag795
ag796
ag797
ag798
ag799
ag800
ag801
ag794
ag795
ag796
ag797
ag798
ag799
ag800
ag801
ag795
ag796
ag797
ag798
ag799
ag800
ag801
ag796
ag797
ag798
ag799
ag800
ag801
ag797
ag798
ag799
ag800
ag801
ag798
ag799
ag800
ag801
ag799
ag800
ag801
ag800
ag801
ag801
aS'moon'
p802
aS'moon'
p803
aS'moon'
p804
aS'moon'
p805
aS'moon'
p806
aS'moon'
p807
aS'moon'
p808
aS'moon'
p809
aS'moon'
p810
aS'moon'
p811
aS'moon'
p812
aS'moon'
p813
aS'moon'
p814
aS'moon'
p815
aS'moon'
p816
aS'moon'
p817
aS'moon'
p818
aS'moon'
p819
aS'moon'
p820
aS'moon'
p821
aS'moon'
p822
ag803
ag804
ag805
ag806
ag807
ag808
ag809
ag810
ag811
ag812
ag813
ag814
ag815
ag816
ag817
ag818
ag819
ag820
ag821
ag822
ag804
ag805
ag806
ag807
ag808
ag809
ag810
ag811
ag812
ag813
ag814
ag815
ag816
ag817
ag818
ag819
ag820
ag821
ag822
ag805
ag806
ag807
ag808
ag809
ag810
ag811
ag812
ag813
ag814
ag815
ag816
ag817
ag818
ag819
ag820
ag821
ag822
ag806
ag807
ag808
ag809
ag810
ag811
ag812
ag813
ag814
ag815
ag816
ag817
ag818
ag819
ag820
ag821
ag822
ag807
ag808
ag809
ag810
ag811
ag812
ag813
ag814
ag815
ag816
ag817
ag818
ag819
ag820
ag821
ag822
ag808
ag809
ag810
ag811
ag812
ag813
ag814
ag815
ag816
ag817
ag818
ag819
ag820
ag821
ag822
ag809
ag810
ag811
ag812
ag813
ag814
ag815
ag816
ag817
ag818
ag819
ag820
ag821
ag822
ag810
ag811
ag812
ag813
ag814
ag815
ag816
ag817
ag818
ag819
ag820
ag821
ag822
ag811
ag812
ag813
ag814
ag815
ag816
ag817
ag818
ag819
ag820
ag821
ag822
ag812
ag813
ag814
ag815
ag816
ag817
ag818
ag819
ag820
ag821
ag822
ag813
ag814
ag815
ag816
ag817
ag818
ag819
ag820
ag821
ag822
ag814
ag815
ag816
ag817
ag818
ag819
ag820
ag821
ag822
ag815
ag816
ag817
ag818
ag819
ag820
ag821
ag822
ag816
ag817
ag818
ag819
ag820
ag821
ag822
ag817
ag818
ag819
ag820
ag821
ag822
ag818
ag819
ag820
ag821
ag822
ag819
ag820
ag821
ag822
ag820
ag821
ag822
ag821
ag822
ag822
aS'new'
p823
aS'new'
p824
aS'new'
p825
aS'new'
p826
aS'new'
p827
aS'new'
p828
aS'new'
p829
aS'new'
p830
aS'new'
p831
aS'new'
p832
aS'new'
p833
aS'new'
p834
aS'new'
p835
aS'new'
p836
aS'new'
p837
aS'new'
p838
aS'new'
p839
aS'new'
p840
aS'new'
p841
aS'new'
p842
aS'new'
p843
aS'new'
p844
ag824
ag825
ag826
ag827
ag828
ag829
ag830
ag831
ag823
ag833
ag834
ag835
ag836
ag837
ag838
ag839
ag840
ag841
ag842
ag843
ag844
ag825
ag826
ag827
ag828
ag829
ag830
ag831
ag824
ag833
ag834
ag835
ag836
ag837
ag838
ag839
ag840
ag841
ag842
ag843
ag844
ag826
ag827
ag828
ag829
ag830
ag831
ag825
ag833
ag834
ag835
ag836
ag837
ag838
ag839
ag840
ag841
ag842
ag843
ag844
ag827
ag828
ag829
ag830
ag831
ag826
ag833
ag834
ag835
ag836
ag837
ag838
ag839
ag840
ag841
ag842
ag843
ag844
ag828
ag829
ag830
ag831
ag827
ag833
ag834
ag835
ag836
ag837
ag838
ag839
ag840
ag841
ag842
ag843
ag844
ag829
ag830
ag831
ag828
ag833
ag834
ag835
ag836
ag837
ag838
ag839
ag840
ag841
ag842
ag843
ag844
ag830
ag831
ag829
ag833
ag834
ag835
ag836
ag837
ag838
ag839
ag840
ag841
ag842
ag843
ag844
ag831
ag830
ag833
ag834
ag835
ag836
ag837
ag838
ag839
ag840
ag841
ag842
ag843
ag844
ag831
ag833
ag834
ag835
ag836
ag837
ag838
ag839
ag840
ag841
ag842
ag843
ag844
ag833
ag834
ag835
ag836
ag837
ag838
ag839
ag840
ag841
ag842
ag843
ag844
ag834
ag835
ag836
ag837
ag838
ag839
ag840
ag841
ag842
ag843
ag844
ag835
ag836
ag837
ag838
ag839
ag840
ag841
ag842
ag843
ag844
ag836
ag837
ag838
ag839
ag840
ag841
ag842
ag843
ag844
ag837
ag838
ag839
ag840
ag841
ag842
ag843
ag844
ag838
ag839
ag840
ag841
ag842
ag843
ag844
ag839
ag840
ag841
ag842
ag843
ag844
ag840
ag841
ag842
ag843
ag844
ag841
ag842
ag843
ag844
ag842
ag843
ag844
ag843
ag844
ag844
aS'bird'
p845
aS'bird'
p846
aS'bird'
p847
aS'bird'
p848
aS'bird'
p849
aS'bird'
p850
aS'bird'
p851
aS'bird'
p852
aS'bird'
p853
aS'bird'
p854
aS'bird'
p855
aS'bird'
p856
aS'bird'
p857
aS'bird'
p858
aS'bird'
p859
aS'bird'
p860
aS'bird'
p861
aS'bird'
p862
aS'bird'
p863
aS'bird'
p864
aS'bird'
p865
ag846
ag847
ag848
ag849
ag850
ag851
ag852
ag853
ag854
ag855
ag856
ag857
ag858
ag859
ag860
ag861
ag862
ag845
ag864
ag865
ag847
ag848
ag849
ag850
ag851
ag852
ag853
ag854
ag855
ag856
ag857
ag858
ag859
ag860
ag861
ag862
ag846
ag864
ag865
ag848
ag849
ag850
ag851
ag852
ag853
ag854
ag855
ag856
ag857
ag858
ag859
ag860
ag861
ag862
ag847
ag864
ag865
ag849
ag850
ag851
ag852
ag853
ag854
ag855
ag856
ag857
ag858
ag859
ag860
ag861
ag862
ag848
ag864
ag865
ag850
ag851
ag852
ag853
ag854
ag855
ag856
ag857
ag858
ag859
ag860
ag861
ag862
ag849
ag864
ag865
ag851
ag852
ag853
ag854
ag855
ag856
ag857
ag858
ag859
ag860
ag861
ag862
ag850
ag864
ag865
ag852
ag853
ag854
ag855
ag856
ag857
ag858
ag859
ag860
ag861
ag862
ag851
ag864
ag865
ag853
ag854
ag855
ag856
ag857
ag858
ag859
ag860
ag861
ag862
ag852
ag864
ag865
ag854
ag855
ag856
ag857
ag858
ag859
ag860
ag861
ag862
ag853
ag864
ag865
ag855
ag856
ag857
ag858
ag859
ag860
ag861
ag862
ag854
ag864
ag865
ag856
ag857
ag858
ag859
ag860
ag861
ag862
ag855
ag864
ag865
ag857
ag858
ag859
ag860
ag861
ag862
ag856
ag864
ag865
ag858
ag859
ag860
ag861
ag862
ag857
ag864
ag865
ag859
ag860
ag861
ag862
ag858
ag864
ag865
ag860
ag861
ag862
ag859
ag864
ag865
ag861
ag862
ag860
ag864
ag865
ag862
ag861
ag864
ag865
ag862
ag864
ag865
ag864
ag865
ag865
aS'red'
p866
ag866
aS'red'
p867
aS'red'
p868
aS'red'
p869
aS'red'
p870
aS'red'
p871
aS'red'
p872
aS'red'
p873
aS'red'
p874
aS'red'
p875
aS'red'
p876
ag866
aS'red'
p877
aS'red'
p878
ag866
aS'red'
p879
ag866
aS'red'
p880
aS'red'
p881
aS'red'
p882
aS'red'
p883
aS'red'
p884
aS'hot'
p885
ag867
ag868
ag869
ag870
ag871
ag872
ag873
ag874
ag875
ag876
aS'hot'
p886
ag877
ag878
aS'red'
p887
ag879
aS'red'
p888
ag880
ag881
ag882
ag883
ag884
ag867
ag868
ag869
ag870
ag871
ag872
ag873
ag874
ag875
ag876
ag886
ag877
ag878
ag887
ag879
ag888
ag880
ag881
ag882
ag883
ag884
ag868
ag869
ag870
ag871
ag872
ag873
ag874
ag875
ag876
ag867
ag877
ag878
ag867
ag879
ag867
ag880
ag881
ag882
ag883
ag884
ag869
ag870
ag871
ag872
ag873
ag874
ag875
ag876
ag868
ag877
ag878
ag868
ag879
ag868
ag880
ag881
ag882
ag883
ag884
ag870
ag871
ag872
ag873
ag874
ag875
ag876
ag869
ag877
ag878
ag869
ag879
ag869
ag880
ag881
ag882
ag883
ag884
ag871
ag872
ag873
ag874
ag875
ag876
ag870
ag877
ag878
ag870
ag879
ag870
ag880
ag881
ag882
ag883
ag884
ag872
ag873
ag874
ag875
ag876
ag871
ag877
ag878
ag871
ag879
ag871
ag880
ag881
ag882
ag883
ag884
ag873
ag874
ag875
ag876
ag872
ag877
ag878
ag872
ag879
ag872
ag880
ag881
ag882
ag883
ag884
ag874
ag875
ag876
ag873
ag877
ag878
ag873
ag879
ag873
ag880
ag881
ag882
ag883
ag884
ag875
ag876
ag874
ag877
ag878
ag874
ag879
ag874
ag880
ag881
ag882
ag883
ag884
ag876
ag875
ag877
ag878
ag875
ag879
ag875
ag880
ag881
ag882
ag883
ag884
ag876
ag877
ag878
ag876
ag879
ag876
ag880
ag881
ag882
ag883
ag884
ag877
ag878
ag887
ag879
ag888
ag880
ag881
ag882
ag883
ag884
ag878
ag877
ag879
ag877
ag880
ag881
ag882
ag883
ag884
ag878
ag879
ag878
ag880
ag881
ag882
ag883
ag884
ag879
ag888
ag880
ag881
ag882
ag883
ag884
ag879
ag880
ag881
ag882
ag883
ag884
ag880
ag881
ag882
ag883
ag884
ag881
ag882
ag883
ag884
ag882
ag883
ag884
ag883
ag884
ag884
aS'we'
p889
aS'we'
p890
aS'we'
p891
aS'we'
p892
aS'we'
p893
aS'we'
p894
aS'we'
p895
aS'we'
p896
aS'we'
p897
aS'we'
p898
aS'we'
p899
aS'we'
p900
aS'we'
p901
aS'we'
p902
aS'we'
p903
aS'we'
p904
aS'we'
p905
aS'we'
p906
aS'we'
p907
aS'we'
p908
ag890
ag891
ag892
ag893
ag894
ag895
ag896
ag897
ag898
ag899
ag900
ag901
ag902
ag903
ag904
ag905
ag906
ag907
ag908
ag891
ag892
ag893
ag894
ag895
ag896
ag897
ag898
ag899
ag900
ag901
ag902
ag903
ag904
ag905
ag906
ag907
ag908
ag892
ag893
ag894
ag895
ag896
ag897
ag898
ag899
ag900
ag901
ag902
ag903
ag904
ag905
ag906
ag907
ag908
ag893
ag894
ag895
ag896
ag897
ag898
ag899
ag900
ag901
ag902
ag903
ag904
ag905
ag906
ag907
ag908
ag894
ag895
ag896
ag897
ag898
ag899
ag900
ag901
ag902
ag903
ag904
ag905
ag906
ag907
ag908
ag895
ag896
ag897
ag898
ag899
ag900
ag901
ag902
ag903
ag904
ag905
ag906
ag907
ag908
ag896
ag897
ag898
ag899
ag900
ag901
ag902
ag903
ag904
ag905
ag906
ag907
ag908
ag897
ag898
ag899
ag900
ag901
ag902
ag903
ag904
ag905
ag906
ag907
ag908
ag898
ag899
ag900
ag901
ag902
ag903
ag904
ag905
ag906
ag907
ag908
ag899
ag900
ag901
ag902
ag903
ag904
ag905
ag906
ag907
ag908
ag900
ag901
ag902
ag903
ag904
ag905
ag906
ag907
ag908
ag901
ag902
ag903
ag904
ag905
ag906
ag907
ag908
ag902
ag903
ag904
ag905
ag906
ag907
ag908
ag903
ag904
ag905
ag906
ag907
ag908
ag904
ag905
ag906
ag907
ag908
ag905
ag906
ag907
ag908
ag906
ag907
ag908
ag907
ag908
ag908
aS'grease'
p909
aS'grease'
p910
aS'grease'
p911
aS'grease'
p912
aS'grease'
p913
aS'grease'
p914
aS'grease'
p915
aS'grease'
p916
aS'grease'
p917
aS'grease'
p918
aS'grease'
p919
aS'grease'
p920
aS'grease'
p921
aS'grease'
p922
aS'grease'
p923
aS'grease'
p924
aS'grease'
p925
aS'grease'
p926
aS'grease'
p927
aS'grease'
p928
ag910
ag911
ag912
ag913
ag914
ag915
ag916
ag917
ag918
ag919
ag920
ag921
ag922
ag923
ag924
ag925
ag926
ag927
ag928
ag911
ag912
ag913
ag914
ag915
ag916
ag917
ag918
ag919
ag920
ag921
ag922
ag923
ag924
ag925
ag926
ag927
ag928
ag912
ag913
ag914
ag915
ag916
ag917
ag918
ag919
ag920
ag921
ag922
ag923
ag924
ag925
ag926
ag927
ag928
ag913
ag914
ag915
ag916
ag917
ag918
ag919
ag920
ag921
ag922
ag923
ag924
ag925
ag926
ag927
ag928
ag914
ag915
ag916
ag917
ag918
ag919
ag920
ag921
ag922
ag923
ag924
ag925
ag926
ag927
ag928
ag915
ag916
ag917
ag918
ag919
ag920
ag921
ag922
ag923
ag924
ag925
ag926
ag927
ag928
ag916
ag917
ag918
ag919
ag920
ag921
ag922
ag923
ag924
ag925
ag926
ag927
ag928
ag917
ag918
ag919
ag920
ag921
ag922
ag923
ag924
ag925
ag926
ag927
ag928
ag918
ag919
ag920
ag921
ag922
ag923
ag924
ag925
ag926
ag927
ag928
ag919
ag920
ag921
ag922
ag923
ag924
ag925
ag926
ag927
ag928
ag920
ag921
ag922
ag923
ag924
ag925
ag926
ag927
ag928
ag921
ag922
ag923
ag924
ag925
ag926
ag927
ag928
ag922
ag923
ag924
ag925
ag926
ag927
ag928
ag923
ag924
ag925
ag926
ag927
ag928
ag924
ag925
ag926
ag927
ag928
ag925
ag926
ag927
ag928
ag926
ag927
ag928
ag927
ag928
ag928
aS'burn'
p929
aS'burn'
p930
aS'burn'
p931
aS'burn'
p932
aS'burn'
p933
aS'burn'
p934
aS'burn'
p935
aS'burn'
p936
aS'burn'
p937
aS'burn'
p938
aS'burn'
p939
aS'burn'
p940
aS'burn'
p941
aS'burn'
p942
aS'burn'
p943
aS'burn'
p944
aS'burn'
p945
aS'burn'
p946
aS'burn'
p947
aS'burn'
p948
aS'burn'
p949
aS'burn'
p950
ag930
ag931
ag932
ag933
ag934
ag935
ag936
ag937
ag938
ag939
ag940
ag941
ag942
ag943
ag944
ag945
ag946
ag947
ag948
ag949
ag950
ag931
ag932
ag933
ag934
ag935
ag936
ag937
ag938
ag939
ag940
ag941
ag942
ag943
ag944
ag945
ag946
ag947
ag948
ag949
ag950
ag932
ag933
ag934
ag935
ag936
ag937
ag938
ag939
ag940
ag941
ag942
ag943
ag944
ag945
ag946
ag947
ag948
ag949
ag950
ag933
ag934
ag935
ag936
ag937
ag938
ag939
ag940
ag941
ag942
ag943
ag944
ag945
ag946
ag947
ag948
ag949
ag950
ag934
ag935
ag936
ag937
ag938
ag939
ag940
ag941
ag942
ag943
ag944
ag945
ag946
ag947
ag948
ag949
ag950
ag935
ag936
ag937
ag938
ag939
ag940
ag941
ag942
ag943
ag944
ag945
ag946
ag947
ag948
ag949
ag950
ag936
ag937
ag938
ag939
ag940
ag941
ag942
ag943
ag944
ag945
ag946
ag947
ag948
ag949
ag950
ag937
ag938
ag939
ag940
ag941
ag942
ag943
ag944
ag945
ag946
ag947
ag948
ag949
ag950
ag938
ag939
ag940
ag941
ag942
ag943
ag944
ag945
ag946
ag947
ag948
ag949
ag950
ag939
ag940
ag941
ag942
ag943
ag944
ag945
ag946
ag947
ag948
ag949
ag950
ag940
ag941
ag942
ag943
ag944
ag945
ag946
ag947
ag948
ag949
ag950
ag941
ag942
ag943
ag944
ag945
ag946
ag947
ag948
ag949
ag950
ag942
ag943
ag944
ag945
ag946
ag947
ag948
ag949
ag950
ag943
ag944
ag945
ag946
ag947
ag948
ag949
ag950
ag944
ag945
ag946
ag947
ag948
ag949
ag950
ag945
ag946
ag947
ag948
ag949
ag950
ag946
ag947
ag948
ag949
ag950
ag947
ag948
ag949
ag950
ag948
ag949
ag950
ag949
ag950
ag950
aS'water'
p951
ag951
aS'water'
p952
ag951
aS'water'
p953
aS'water'
p954
aS'water'
p955
ag951
aS'water'
p956
aS'water'
p957
ag951
ag951
aS'water'
p958
aS'water'
p959
aS'water'
p960
aS'water'
p961
aS'water'
p962
aS'water'
p963
aS'water'
p964
ag951
aS'water'
p965
aS'water'
p966
aS'water'
p967
aS'water'
p968
ag952
aS'water'
p969
ag953
ag954
ag955
aS'water'
p970
ag956
ag957
aS'water'
p971
aS'water'
p972
ag958
ag959
ag960
ag961
ag962
ag963
ag964
aS'water'
p973
ag965
ag966
ag967
ag952
ag969
ag953
ag954
ag955
ag970
ag956
ag957
ag971
ag972
ag958
ag959
ag960
ag961
ag962
ag963
ag964
ag973
ag965
ag966
ag967
ag952
ag953
ag954
ag955
ag952
ag956
ag957
ag952
ag952
ag958
ag959
ag960
ag961
ag962
ag963
ag964
ag952
ag965
ag966
ag967
ag953
ag954
ag955
ag970
ag956
ag957
ag971
ag972
ag958
ag959
ag960
ag961
ag962
ag963
ag964
ag973
ag965
ag966
ag967
ag954
ag955
ag953
ag956
ag957
ag953
ag953
ag958
ag959
ag960
ag961
ag962
ag963
ag964
ag953
ag965
ag966
ag967
ag955
ag954
ag956
ag957
ag954
ag954
ag958
ag959
ag960
ag961
ag962
ag963
ag964
ag954
ag965
ag966
ag967
ag955
ag956
ag957
ag955
ag955
ag958
ag959
ag960
ag961
ag962
ag963
ag964
ag955
ag965
ag966
ag967
ag956
ag957
ag971
ag972
ag958
ag959
ag960
ag961
ag962
ag963
ag964
ag973
ag965
ag966
ag967
ag957
ag956
ag956
ag958
ag959
ag960
ag961
ag962
ag963
ag964
ag956
ag965
ag966
ag967
ag957
ag957
ag958
ag959
ag960
ag961
ag962
ag963
ag964
ag957
ag965
ag966
ag967
ag972
ag958
ag959
ag960
ag961
ag962
ag963
ag964
ag973
ag965
ag966
ag967
ag958
ag959
ag960
ag961
ag962
ag963
ag964
ag973
ag965
ag966
ag967
ag959
ag960
ag961
ag962
ag963
ag964
ag958
ag965
ag966
ag967
ag960
ag961
ag962
ag963
ag964
ag959
ag965
ag966
ag967
ag961
ag962
ag963
ag964
ag960
ag965
ag966
ag967
ag962
ag963
ag964
ag961
ag965
ag966
ag967
ag963
ag964
ag962
ag965
ag966
ag967
ag964
ag963
ag965
ag966
ag967
ag964
ag965
ag966
ag967
ag965
ag966
ag967
ag966
ag967
ag967
aS'path'
p974
aS'path'
p975
aS'path'
p976
aS'path'
p977
aS'path'
p978
aS'path'
p979
aS'path'
p980
aS'path'
p981
aS'path'
p982
aS'path'
p983
aS'path'
p984
aS'path'
p985
aS'path'
p986
aS'path'
p987
aS'path'
p988
aS'path'
p989
aS'path'
p990
aS'path'
p991
aS'path'
p992
aS'path'
p993
aS'path'
p994
aS'path'
p995
ag975
ag976
ag977
ag978
ag979
ag980
ag981
ag982
ag983
ag984
ag985
ag986
ag987
ag988
ag989
ag990
ag991
ag992
ag993
ag994
ag995
ag976
ag977
ag978
ag979
ag980
ag981
ag982
ag983
ag984
ag985
ag986
ag987
ag988
ag989
ag990
ag991
ag992
ag993
ag994
ag995
ag977
ag978
ag979
ag980
ag981
ag982
ag983
ag984
ag985
ag986
ag987
ag988
ag989
ag990
ag991
ag992
ag993
ag994
ag995
ag978
ag979
ag980
ag981
ag982
ag983
ag984
ag985
ag986
ag987
ag988
ag989
ag990
ag991
ag992
ag993
ag994
ag995
ag979
ag980
ag981
ag982
ag983
ag984
ag985
ag986
ag987
ag988
ag989
ag990
ag991
ag992
ag993
ag994
ag995
ag980
ag981
ag982
ag983
ag984
ag985
ag986
ag987
ag988
ag989
ag990
ag991
ag992
ag993
ag994
ag995
ag981
ag982
ag983
ag984
ag985
ag986
ag987
ag988
ag989
ag990
ag991
ag992
ag993
ag994
ag995
ag982
ag983
ag984
ag985
ag986
ag987
ag988
ag989
ag990
ag991
ag992
ag993
ag994
ag995
ag983
ag984
ag985
ag986
ag987
ag988
ag989
ag990
ag991
ag992
ag993
ag994
ag995
ag984
ag985
ag986
ag987
ag988
ag989
ag990
ag991
ag992
ag993
ag994
ag995
ag985
ag986
ag987
ag988
ag989
ag990
ag991
ag992
ag993
ag994
ag995
ag986
ag987
ag988
ag989
ag990
ag991
ag992
ag993
ag994
ag995
ag987
ag988
ag989
ag990
ag991
ag992
ag993
ag994
ag995
ag988
ag989
ag990
ag991
ag992
ag993
ag994
ag995
ag989
ag990
ag991
ag992
ag993
ag994
ag995
ag990
ag991
ag992
ag993
ag994
ag995
ag991
ag992
ag993
ag994
ag995
ag992
ag993
ag994
ag995
ag993
ag994
ag995
ag994
ag995
ag995
aS'ash'
p996
aS'ash'
p997
aS'ash'
p998
aS'ash'
p999
aS'ash'
p1000
aS'ash'
p1001
aS'ash'
p1002
aS'ash'
p1003
aS'ash'
p1004
aS'ash'
p1005
aS'ash'
p1006
aS'ash'
p1007
aS'ash'
p1008
aS'ash'
p1009
aS'ash'
p1010
aS'ash'
p1011
aS'ash'
p1012
aS'ash'
p1013
aS'ash'
p1014
aS'ash'
p1015
aS'ash'
p1016
aS'ash'
p1017
aS'ash'
p1018
ag997
ag998
ag999
ag1000
ag1001
ag1002
ag1003
ag1004
ag1005
ag1006
ag1007
ag1008
ag1009
ag1010
ag1011
ag1012
ag1013
ag1014
ag1015
ag1016
ag1017
ag1018
ag998
ag999
ag1000
ag1001
ag1002
ag1003
ag1004
ag1005
ag1006
ag1007
ag1008
ag1009
ag1010
ag1011
ag1012
ag1013
ag1014
ag1015
ag1016
ag1017
ag1018
ag999
ag1000
ag1001
ag1002
ag1003
ag1004
ag1005
ag1006
ag1007
ag1008
ag1009
ag1010
ag1011
ag1012
ag1013
ag1014
ag1015
ag1016
ag1017
ag1018
ag1000
ag1001
ag1002
ag1003
ag1004
ag1005
ag1006
ag1007
ag1008
ag1009
ag1010
ag1011
ag1012
ag1013
ag1014
ag1015
ag1016
ag1017
ag1018
ag1001
ag1002
ag1003
ag1004
ag1005
ag1006
ag1007
ag1008
ag1009
ag1010
ag1011
ag1012
ag1013
ag1014
ag1015
ag1016
ag1017
ag1018
ag1002
ag1003
ag1004
ag1005
ag1006
ag1007
ag1008
ag1009
ag1010
ag1011
ag1012
ag1013
ag1014
ag1015
ag1016
ag1017
ag1018
ag1003
ag1004
ag1005
ag1006
ag1007
ag1008
ag1009
ag1010
ag1011
ag1012
ag1013
ag1014
ag1015
ag1016
ag1017
ag1018
ag1004
ag1005
ag1006
ag1007
ag1008
ag1009
ag1010
ag1011
ag1012
ag1013
ag1014
ag1015
ag1016
ag1017
ag1018
ag1005
ag1006
ag1007
ag1008
ag1009
ag1010
ag1011
ag1012
ag1013
ag1014
ag1015
ag1016
ag1017
ag1018
ag1006
ag1007
ag1008
ag1009
ag1010
ag1011
ag1012
ag1013
ag1014
ag1015
ag1016
ag1017
ag1018
ag1007
ag1008
ag1009
ag1010
ag1011
ag1012
ag1013
ag1014
ag1015
ag1016
ag1017
ag1018
ag1008
ag1009
ag1010
ag1011
ag1012
ag1013
ag1014
ag1015
ag1016
ag1017
ag1018
ag1009
ag1010
ag1011
ag1012
ag1013
ag1014
ag1015
ag1016
ag1017
ag1018
ag1010
ag1011
ag1012
ag1013
ag1014
ag1015
ag1016
ag1017
ag1018
ag1011
ag1012
ag1013
ag1014
ag1015
ag1016
ag1017
ag1018
ag1012
ag1013
ag1014
ag1015
ag1016
ag1017
ag1018
ag1013
ag1014
ag1015
ag1016
ag1017
ag1018
ag1014
ag1015
ag1016
ag1017
ag1018
ag1015
ag1016
ag1017
ag1018
ag1016
ag1017
ag1018
ag1017
ag1018
ag1018
aS'come'
p1019
aS'come'
p1020
aS'come'
p1021
aS'come'
p1022
aS'come'
p1023
aS'come'
p1024
aS'come'
p1025
aS'come'
p1026
aS'come'
p1027
aS'come'
p1028
aS'come'
p1029
aS'come'
p1030
aS'come'
p1031
aS'come'
p1032
aS'come'
p1033
aS'come'
p1034
aS'come'
p1035
aS'come'
p1036
aS'come'
p1037
aS'come'
p1038
aS'come'
p1039
aS'come'
p1040
ag1020
ag1021
ag1022
ag1023
ag1024
ag1025
ag1026
ag1027
ag1028
ag1029
ag1030
ag1031
ag1032
ag1033
ag1019
ag1035
ag1036
ag1037
ag1038
ag1039
ag1040
ag1021
ag1022
ag1023
ag1024
ag1025
ag1026
ag1027
ag1028
ag1029
ag1030
ag1031
ag1032
ag1033
ag1020
ag1035
ag1036
ag1037
ag1038
ag1039
ag1040
ag1022
ag1023
ag1024
ag1025
ag1026
ag1027
ag1028
ag1029
ag1030
ag1031
ag1032
ag1033
ag1021
ag1035
ag1036
ag1037
ag1038
ag1039
ag1040
ag1023
ag1024
ag1025
ag1026
ag1027
ag1028
ag1029
ag1030
ag1031
ag1032
ag1033
ag1022
ag1035
ag1036
ag1037
ag1038
ag1039
ag1040
ag1024
ag1025
ag1026
ag1027
ag1028
ag1029
ag1030
ag1031
ag1032
ag1033
ag1023
ag1035
ag1036
ag1037
ag1038
ag1039
ag1040
ag1025
ag1026
ag1027
ag1028
ag1029
ag1030
ag1031
ag1032
ag1033
ag1024
ag1035
ag1036
ag1037
ag1038
ag1039
ag1040
ag1026
ag1027
ag1028
ag1029
ag1030
ag1031
ag1032
ag1033
ag1025
ag1035
ag1036
ag1037
ag1038
ag1039
ag1040
ag1027
ag1028
ag1029
ag1030
ag1031
ag1032
ag1033
ag1026
ag1035
ag1036
ag1037
ag1038
ag1039
ag1040
ag1028
ag1029
ag1030
ag1031
ag1032
ag1033
ag1027
ag1035
ag1036
ag1037
ag1038
ag1039
ag1040
ag1029
ag1030
ag1031
ag1032
ag1033
ag1028
ag1035
ag1036
ag1037
ag1038
ag1039
ag1040
ag1030
ag1031
ag1032
ag1033
ag1029
ag1035
ag1036
ag1037
ag1038
ag1039
ag1040
ag1031
ag1032
ag1033
ag1030
ag1035
ag1036
ag1037
ag1038
ag1039
ag1040
ag1032
ag1033
ag1031
ag1035
ag1036
ag1037
ag1038
ag1039
ag1040
ag1033
ag1032
ag1035
ag1036
ag1037
ag1038
ag1039
ag1040
ag1033
ag1035
ag1036
ag1037
ag1038
ag1039
ag1040
ag1035
ag1036
ag1037
ag1038
ag1039
ag1040
ag1036
ag1037
ag1038
ag1039
ag1040
ag1037
ag1038
ag1039
ag1040
ag1038
ag1039
ag1040
ag1039
ag1040
ag1040
aS'dry'
p1041
aS'dry'
p1042
aS'dry'
p1043
aS'dry'
p1044
aS'dry'
p1045
aS'dry'
p1046
aS'dry'
p1047
aS'dry'
p1048
aS'dry'
p1049
aS'dry'
p1050
aS'dry'
p1051
aS'dry'
p1052
aS'dry'
p1053
aS'dry'
p1054
aS'dry'
p1055
aS'dry'
p1056
aS'dry'
p1057
aS'dry'
p1058
aS'dry'
p1059
aS'dry'
p1060
aS'dry'
p1061
aS'dry'
p1062
ag1042
ag1043
ag1044
ag1045
ag1046
ag1047
ag1048
ag1049
ag1050
ag1051
ag1052
ag1053
ag1054
ag1055
ag1056
ag1057
ag1058
ag1059
ag1060
ag1061
ag1062
ag1043
ag1044
ag1045
ag1046
ag1047
ag1048
ag1049
ag1050
ag1051
ag1052
ag1053
ag1054
ag1055
ag1056
ag1057
ag1058
ag1059
ag1060
ag1061
ag1062
ag1044
ag1045
ag1046
ag1047
ag1048
ag1049
ag1050
ag1051
ag1052
ag1053
ag1054
ag1055
ag1056
ag1057
ag1058
ag1059
ag1060
ag1061
ag1062
ag1045
ag1046
ag1047
ag1048
ag1049
ag1050
ag1051
ag1052
ag1053
ag1054
ag1055
ag1056
ag1057
ag1058
ag1059
ag1060
ag1061
ag1062
ag1046
ag1047
ag1048
ag1049
ag1050
ag1051
ag1052
ag1053
ag1054
ag1055
ag1056
ag1057
ag1058
ag1059
ag1060
ag1061
ag1062
ag1047
ag1048
ag1049
ag1050
ag1051
ag1052
ag1053
ag1054
ag1055
ag1056
ag1057
ag1058
ag1059
ag1060
ag1061
ag1062
ag1048
ag1049
ag1050
ag1051
ag1052
ag1053
ag1054
ag1055
ag1056
ag1057
ag1058
ag1059
ag1060
ag1061
ag1062
ag1049
ag1050
ag1051
ag1052
ag1053
ag1054
ag1055
ag1056
ag1057
ag1058
ag1059
ag1060
ag1061
ag1062
ag1050
ag1051
ag1052
ag1053
ag1054
ag1055
ag1056
ag1057
ag1058
ag1059
ag1060
ag1061
ag1062
ag1051
ag1052
ag1053
ag1054
ag1055
ag1056
ag1057
ag1058
ag1059
ag1060
ag1061
ag1062
ag1052
ag1053
ag1054
ag1055
ag1056
ag1057
ag1058
ag1059
ag1060
ag1061
ag1062
ag1053
ag1054
ag1055
ag1056
ag1057
ag1058
ag1059
ag1060
ag1061
ag1062
ag1054
ag1055
ag1056
ag1057
ag1058
ag1059
ag1060
ag1061
ag1062
ag1055
ag1056
ag1057
ag1058
ag1059
ag1060
ag1061
ag1062
ag1056
ag1057
ag1058
ag1059
ag1060
ag1061
ag1062
ag1057
ag1058
ag1059
ag1060
ag1061
ag1062
ag1058
ag1059
ag1060
ag1061
ag1062
ag1059
ag1060
ag1061
ag1062
ag1060
ag1061
ag1062
ag1061
ag1062
ag1062
aS'stone'
p1063
aS'stone'
p1064
aS'stone'
p1065
aS'stone'
p1066
aS'stone'
p1067
aS'stone'
p1068
aS'stone'
p1069
aS'stone'
p1070
aS'stone'
p1071
aS'stone'
p1072
aS'stone'
p1073
aS'stone'
p1074
aS'stone'
p1075
aS'stone'
p1076
aS'stone'
p1077
aS'stone'
p1078
aS'stone'
p1079
aS'stone'
p1080
aS'stone'
p1081
aS'stone'
p1082
aS'stone'
p1083
aS'stone'
p1084
aS'stone'
p1085
ag1064
ag1065
ag1066
ag1067
ag1068
ag1069
ag1070
ag1071
ag1072
ag1073
ag1074
ag1075
ag1076
ag1077
ag1078
ag1079
ag1080
ag1081
ag1082
ag1083
ag1084
ag1085
ag1065
ag1066
ag1067
ag1068
ag1069
ag1070
ag1071
ag1072
ag1073
ag1074
ag1075
ag1076
ag1077
ag1078
ag1079
ag1080
ag1081
ag1082
ag1083
ag1084
ag1085
ag1066
ag1067
ag1068
ag1069
ag1070
ag1071
ag1072
ag1073
ag1074
ag1075
ag1076
ag1077
ag1078
ag1079
ag1080
ag1081
ag1082
ag1083
ag1084
ag1085
ag1067
ag1068
ag1069
ag1070
ag1071
ag1072
ag1073
ag1074
ag1075
ag1076
ag1077
ag1078
ag1079
ag1080
ag1081
ag1082
ag1083
ag1084
ag1085
ag1068
ag1069
ag1070
ag1071
ag1072
ag1073
ag1074
ag1075
ag1076
ag1077
ag1078
ag1079
ag1080
ag1081
ag1082
ag1083
ag1084
ag1085
ag1069
ag1070
ag1071
ag1072
ag1073
ag1074
ag1075
ag1076
ag1077
ag1078
ag1079
ag1080
ag1081
ag1082
ag1083
ag1084
ag1085
ag1070
ag1071
ag1072
ag1073
ag1074
ag1075
ag1076
ag1077
ag1078
ag1079
ag1080
ag1081
ag1082
ag1083
ag1084
ag1085
ag1071
ag1072
ag1073
ag1074
ag1075
ag1076
ag1077
ag1078
ag1079
ag1080
ag1081
ag1082
ag1083
ag1084
ag1085
ag1072
ag1073
ag1074
ag1075
ag1076
ag1077
ag1078
ag1079
ag1080
ag1081
ag1082
ag1083
ag1084
ag1085
ag1073
ag1074
ag1075
ag1076
ag1077
ag1078
ag1079
ag1080
ag1081
ag1082
ag1083
ag1084
ag1085
ag1074
ag1075
ag1076
ag1077
ag1078
ag1079
ag1080
ag1081
ag1082
ag1083
ag1084
ag1085
ag1075
ag1076
ag1077
ag1078
ag1079
ag1080
ag1081
ag1082
ag1083
ag1084
ag1085
ag1076
ag1077
ag1078
ag1079
ag1080
ag1081
ag1082
ag1083
ag1084
ag1085
ag1077
ag1078
ag1079
ag1080
ag1081
ag1082
ag1083
ag1084
ag1085
ag1078
ag1079
ag1080
ag1081
ag1082
ag1083
ag1084
ag1085
ag1079
ag1080
ag1081
ag1082
ag1083
ag1084
ag1085
ag1080
ag1081
ag1082
ag1083
ag1084
ag1085
ag1081
ag1082
ag1083
ag1084
ag1085
ag1082
ag1083
ag1084
ag1085
ag1083
ag1084
ag1085
ag1084
ag1085
ag1085
aS'many'
p1086
aS'many'
p1087
aS'many'
p1088
aS'many'
p1089
aS'many'
p1090
aS'many'
p1091
aS'many'
p1092
aS'many'
p1093
aS'many'
p1094
aS'many'
p1095
aS'many'
p1096
aS'many'
p1097
aS'many'
p1098
aS'many'
p1099
aS'many'
p1100
ag311
aS'many'
p1101
aS'many'
p1102
aS'many'
p1103
aS'many'
p1104
aS'many'
p1105
aS'many'
p1106
aS'many'
p1107
ag1087
ag1088
ag1089
ag1090
ag1091
ag1092
ag1093
ag1094
ag1095
ag1096
ag1097
ag1098
ag1099
ag1100
ag1086
ag1101
ag1102
ag1103
ag1104
ag1105
ag1106
ag1107
ag1088
ag1089
ag1090
ag1091
ag1092
ag1093
ag1094
ag1095
ag1096
ag1097
ag1098
ag1099
ag1100
ag1087
ag1101
ag1102
ag1103
ag1104
ag1105
ag1106
ag1107
ag1089
ag1090
ag1091
ag1092
ag1093
ag1094
ag1095
ag1096
ag1097
ag1098
ag1099
ag1100
ag1088
ag1101
ag1102
ag1103
ag1104
ag1105
ag1106
ag1107
ag1090
ag1091
ag1092
ag1093
ag1094
ag1095
ag1096
ag1097
ag1098
ag1099
ag1100
ag1089
ag1101
ag1102
ag1103
ag1104
ag1105
ag1106
ag1107
ag1091
ag1092
ag1093
ag1094
ag1095
ag1096
ag1097
ag1098
ag1099
ag1100
ag1090
ag1101
ag1102
ag1103
ag1104
ag1105
ag1106
ag1107
ag1092
ag1093
ag1094
ag1095
ag1096
ag1097
ag1098
ag1099
ag1100
ag1091
ag1101
ag1102
ag1103
ag1104
ag1105
ag1106
ag1107
ag1093
ag1094
ag1095
ag1096
ag1097
ag1098
ag1099
ag1100
ag1092
ag1101
ag1102
ag1103
ag1104
ag1105
ag1106
ag1107
ag1094
ag1095
ag1096
ag1097
ag1098
ag1099
ag1100
ag1093
ag1101
ag1102
ag1103
ag1104
ag1105
ag1106
ag1107
ag1095
ag1096
ag1097
ag1098
ag1099
ag1100
ag1094
ag1101
ag1102
ag1103
ag1104
ag1105
ag1106
ag1107
ag1096
ag1097
ag1098
ag1099
ag1100
ag1095
ag1101
ag1102
ag1103
ag1104
ag1105
ag1106
ag1107
ag1097
ag1098
ag1099
ag1100
ag1096
ag1101
ag1102
ag1103
ag1104
ag1105
ag1106
ag1107
ag1098
ag1099
ag1100
ag1097
ag1101
ag1102
ag1103
ag1104
ag1105
ag1106
ag1107
ag1099
ag1100
ag1098
ag1101
ag1102
ag1103
ag1104
ag1105
ag1106
ag1107
ag1100
ag1099
ag1101
ag1102
ag1103
ag1104
ag1105
ag1106
ag1107
ag1100
ag1101
ag1102
ag1103
ag1104
ag1105
ag1106
ag1107
ag1101
ag1102
ag1103
ag1104
ag1105
ag1106
ag1107
ag1102
ag1103
ag1104
ag1105
ag1106
ag1107
ag1103
ag1104
ag1105
ag1106
ag1107
ag1104
ag1105
ag1106
ag1107
ag1105
ag1106
ag1107
ag1106
ag1107
ag1107
aS'louse'
p1108
aS'louse'
p1109
aS'louse'
p1110
aS'louse'
p1111
aS'louse'
p1112
aS'louse'
p1113
aS'louse'
p1114
aS'louse'
p1115
aS'louse'
p1116
aS'louse'
p1117
aS'louse'
p1118
aS'louse'
p1119
aS'louse'
p1120
aS'louse'
p1121
ag1119
ag1119
aS'louse'
p1122
aS'louse'
p1123
ag1119
aS'louse'
p1124
aS'louse'
p1125
aS'louse'
p1126
ag1119
ag1109
ag1110
ag1111
ag1112
ag1113
ag1114
ag1115
ag1116
ag1117
ag1118
ag1108
ag1120
ag1121
ag1108
ag1108
ag1122
ag1123
ag1108
ag1124
ag1125
ag1126
ag1108
ag1110
ag1111
ag1112
ag1113
ag1114
ag1115
ag1116
ag1117
ag1118
ag1109
ag1120
ag1121
ag1109
ag1109
ag1122
ag1123
ag1109
ag1124
ag1125
ag1126
ag1109
ag1111
ag1112
ag1113
ag1114
ag1115
ag1116
ag1117
ag1118
ag1110
ag1120
ag1121
ag1110
ag1110
ag1122
ag1123
ag1110
ag1124
ag1125
ag1126
ag1110
ag1112
ag1113
ag1114
ag1115
ag1116
ag1117
ag1118
ag1111
ag1120
ag1121
ag1111
ag1111
ag1122
ag1123
ag1111
ag1124
ag1125
ag1126
ag1111
ag1113
ag1114
ag1115
ag1116
ag1117
ag1118
ag1112
ag1120
ag1121
ag1112
ag1112
ag1122
ag1123
ag1112
ag1124
ag1125
ag1126
ag1112
ag1114
ag1115
ag1116
ag1117
ag1118
ag1113
ag1120
ag1121
ag1113
ag1113
ag1122
ag1123
ag1113
ag1124
ag1125
ag1126
ag1113
ag1115
ag1116
ag1117
ag1118
ag1114
ag1120
ag1121
ag1114
ag1114
ag1122
ag1123
ag1114
ag1124
ag1125
ag1126
ag1114
ag1116
ag1117
ag1118
ag1115
ag1120
ag1121
ag1115
ag1115
ag1122
ag1123
ag1115
ag1124
ag1125
ag1126
ag1115
ag1117
ag1118
ag1116
ag1120
ag1121
ag1116
ag1116
ag1122
ag1123
ag1116
ag1124
ag1125
ag1126
ag1116
ag1118
ag1117
ag1120
ag1121
ag1117
ag1117
ag1122
ag1123
ag1117
ag1124
ag1125
ag1126
ag1117
ag1118
ag1120
ag1121
ag1118
ag1118
ag1122
ag1123
ag1118
ag1124
ag1125
ag1126
ag1118
ag1120
ag1121
aS'drink'
p1127
aS'drink'
p1128
ag1122
ag1123
aS'drink'
p1129
ag1124
ag1125
ag1126
aS'drink'
p1130
ag1121
ag1120
ag1120
ag1122
ag1123
ag1120
ag1124
ag1125
ag1126
ag1120
ag1121
ag1121
ag1122
ag1123
ag1121
ag1124
ag1125
ag1126
ag1121
ag1128
ag1122
ag1123
ag1129
ag1124
ag1125
ag1126
ag1130
ag1122
ag1123
ag1129
ag1124
ag1125
ag1126
ag1130
ag1123
ag1122
ag1124
ag1125
ag1126
ag1122
ag1123
ag1124
ag1125
ag1126
ag1123
ag1124
ag1125
ag1126
ag1130
ag1125
ag1126
ag1124
ag1126
ag1125
ag1126
aS'stand'
p1131
aS'stand'
p1132
aS'stand'
p1133
aS'stand'
p1134
aS'stand'
p1135
aS'stand'
p1136
aS'stand'
p1137
aS'stand'
p1138
aS'stand'
p1139
aS'stand'
p1140
aS'stand'
p1141
aS'stand'
p1142
aS'stand'
p1143
aS'stand'
p1144
aS'stand'
p1145
aS'stand'
p1146
aS'stand'
p1147
aS'stand'
p1148
aS'stand'
p1149
aS'stand'
p1150
aS'stand'
p1151
ag1132
ag1133
ag1134
ag1135
ag1136
ag1137
ag1138
ag1139
ag1140
ag1141
ag1142
ag1143
ag1144
ag1145
ag1146
ag1147
ag1148
ag1149
ag1150
ag1151
ag1133
ag1134
ag1135
ag1136
ag1137
ag1138
ag1139
ag1140
ag1141
ag1142
ag1143
ag1144
ag1145
ag1146
ag1147
ag1148
ag1149
ag1150
ag1151
ag1134
ag1135
ag1136
ag1137
ag1138
ag1139
ag1140
ag1141
ag1142
ag1143
ag1144
ag1145
ag1146
ag1147
ag1148
ag1149
ag1150
ag1151
ag1135
ag1136
ag1137
ag1138
ag1139
ag1140
ag1141
ag1142
ag1143
ag1144
ag1145
ag1146
ag1147
ag1148
ag1149
ag1150
ag1151
ag1136
ag1137
ag1138
ag1139
ag1140
ag1141
ag1142
ag1143
ag1144
ag1145
ag1146
ag1147
ag1148
ag1149
ag1150
ag1151
ag1137
ag1138
ag1139
ag1140
ag1141
ag1142
ag1143
ag1144
ag1145
ag1146
ag1147
ag1148
ag1149
ag1150
ag1151
ag1138
ag1139
ag1140
ag1141
ag1142
ag1143
ag1144
ag1145
ag1146
ag1147
ag1148
ag1149
ag1150
ag1151
ag1139
ag1140
ag1141
ag1142
ag1143
ag1144
ag1145
ag1146
ag1147
ag1148
ag1149
ag1150
ag1151
ag1140
ag1141
ag1142
ag1143
ag1144
ag1145
ag1146
ag1147
ag1148
ag1149
ag1150
ag1151
ag1141
ag1142
ag1143
ag1144
ag1145
ag1146
ag1147
ag1148
ag1149
ag1150
ag1151
ag1142
ag1143
ag1144
ag1145
ag1146
ag1147
ag1148
ag1149
ag1150
ag1151
ag1143
ag1144
ag1145
ag1146
ag1147
ag1148
ag1149
ag1150
ag1151
ag1144
ag1145
ag1146
ag1147
ag1148
ag1149
ag1150
ag1151
ag1145
ag1146
ag1147
ag1148
ag1149
ag1150
ag1151
ag1146
ag1147
ag1148
ag1149
ag1150
ag1151
ag1147
ag1148
ag1149
ag1150
ag1151
ag1148
ag1149
ag1150
ag1151
ag1149
ag1150
ag1151
ag1150
ag1151
ag1151
aS'smoke'
p1152
aS'smoke'
p1153
aS'smoke'
p1154
aS'smoke'
p1155
aS'smoke'
p1156
aS'smoke'
p1157
aS'smoke'
p1158
aS'smoke'
p1159
aS'smoke'
p1160
aS'smoke'
p1161
aS'smoke'
p1162
aS'smoke'
p1163
aS'smoke'
p1164
aS'smoke'
p1165
aS'smoke'
p1166
aS'smoke'
p1167
aS'smoke'
p1168
aS'smoke'
p1169
aS'smoke'
p1170
aS'smoke'
p1171
aS'smoke'
p1172
aS'smoke'
p1173
aS'smoke'
p1174
ag1153
ag1154
ag1155
ag1156
ag1157
ag1158
ag1159
ag1160
ag1161
ag1162
ag1163
ag1164
ag1165
ag1166
ag1167
ag1168
ag1169
ag1170
ag1171
ag1172
ag1173
ag1174
ag1154
ag1155
ag1156
ag1157
ag1158
ag1159
ag1160
ag1161
ag1162
ag1163
ag1164
ag1165
ag1166
ag1167
ag1168
ag1169
ag1170
ag1171
ag1172
ag1173
ag1174
ag1155
ag1156
ag1157
ag1158
ag1159
ag1160
ag1161
ag1162
ag1163
ag1164
ag1165
ag1166
ag1167
ag1168
ag1169
ag1170
ag1171
ag1172
ag1173
ag1174
ag1156
ag1157
ag1158
ag1159
ag1160
ag1161
ag1162
ag1163
ag1164
ag1165
ag1166
ag1167
ag1168
ag1169
ag1170
ag1171
ag1172
ag1173
ag1174
ag1157
ag1158
ag1159
ag1160
ag1161
ag1162
ag1163
ag1164
ag1165
ag1166
ag1167
ag1168
ag1169
ag1170
ag1171
ag1172
ag1173
ag1174
ag1158
ag1159
ag1160
ag1161
ag1162
ag1163
ag1164
ag1165
ag1166
ag1167
ag1168
ag1169
ag1170
ag1171
ag1172
ag1173
ag1174
ag1159
ag1160
ag1161
ag1162
ag1163
ag1164
ag1165
ag1166
ag1167
ag1168
ag1169
ag1170
ag1171
ag1172
ag1173
ag1174
ag1160
ag1161
ag1162
ag1163
ag1164
ag1165
ag1166
ag1167
ag1168
ag1169
ag1170
ag1171
ag1172
ag1173
ag1174
ag1161
ag1162
ag1163
ag1164
ag1165
ag1166
ag1167
ag1168
ag1169
ag1170
ag1171
ag1172
ag1173
ag1174
ag1162
ag1163
ag1164
ag1165
ag1166
ag1167
ag1168
ag1169
ag1170
ag1171
ag1172
ag1173
ag1174
ag1163
ag1164
ag1165
ag1166
ag1167
ag1168
ag1169
ag1170
ag1171
ag1172
ag1173
ag1174
ag1164
ag1165
ag1166
ag1167
ag1168
ag1169
ag1170
ag1171
ag1172
ag1173
ag1174
ag1165
ag1166
ag1167
ag1168
ag1169
ag1170
ag1171
ag1172
ag1173
ag1174
ag1166
ag1167
ag1168
ag1169
ag1170
ag1171
ag1172
ag1173
ag1174
ag1167
ag1168
ag1169
ag1170
ag1171
ag1172
ag1173
ag1174
ag1168
ag1169
ag1170
ag1171
ag1172
ag1173
ag1174
ag1169
ag1170
ag1171
ag1172
ag1173
ag1174
ag1170
ag1171
ag1172
ag1173
ag1174
ag1171
ag1172
ag1173
ag1174
ag1172
ag1173
ag1174
ag1173
ag1174
ag1174
aS'tongue'
p1175
aS'tongue'
p1176
aS'tongue'
p1177
aS'tongue'
p1178
aS'tongue'
p1179
aS'tongue'
p1180
aS'tongue'
p1181
aS'tongue'
p1182
aS'tongue'
p1183
aS'tongue'
p1184
aS'tongue'
p1185
aS'tongue'
p1186
aS'tongue'
p1187
aS'tongue'
p1188
aS'tongue'
p1189
aS'tongue'
p1190
aS'tongue'
p1191
aS'tongue'
p1192
aS'tongue'
p1193
aS'tongue'
p1194
aS'tongue'
p1195
aS'tongue'
p1196
aS'tongue'
p1197
ag1176
ag1177
ag1178
ag1175
ag1175
ag1181
ag1175
ag1183
ag1184
ag1185
ag1186
ag1187
ag1188
ag1189
ag1190
ag1175
ag1175
ag1175
ag1194
ag1195
ag1196
ag1197
ag1177
ag1178
ag1176
ag1176
ag1181
ag1176
ag1183
ag1184
ag1185
ag1186
ag1187
ag1188
ag1189
ag1190
ag1176
ag1176
ag1176
ag1194
ag1195
ag1196
ag1197
ag1178
ag1177
ag1177
ag1181
ag1177
ag1183
ag1184
ag1185
ag1186
ag1187
ag1188
ag1189
ag1190
ag1177
ag1177
ag1177
ag1194
ag1195
ag1196
ag1197
ag1178
ag1178
ag1181
ag1178
ag1183
ag1184
ag1185
ag1186
ag1187
ag1188
ag1189
ag1190
ag1178
ag1178
ag1178
ag1194
ag1195
ag1196
ag1197
ag1180
ag1181
ag1182
ag1183
ag1184
ag1185
ag1186
ag1187
ag1188
ag1189
ag1190
ag1191
ag1192
ag1193
ag1194
ag1195
ag1196
ag1197
ag1181
ag1182
ag1183
ag1184
ag1185
ag1186
ag1187
ag1188
ag1189
ag1190
ag1191
ag1192
ag1193
ag1194
ag1195
ag1196
ag1197
ag1181
ag1183
ag1184
ag1185
ag1186
ag1187
ag1188
ag1189
ag1190
ag1181
ag1181
ag1181
ag1194
ag1195
ag1196
ag1197
ag1183
ag1184
ag1185
ag1186
ag1187
ag1188
ag1189
ag1190
ag1191
ag1192
ag1193
ag1194
ag1195
ag1196
ag1197
ag1184
ag1185
ag1186
ag1187
ag1188
ag1189
ag1190
ag1183
ag1183
ag1183
ag1194
ag1195
ag1196
ag1197
ag1185
ag1186
ag1187
ag1188
ag1189
ag1190
ag1184
ag1184
ag1184
ag1194
ag1195
ag1196
ag1197
ag1186
ag1187
ag1188
ag1189
ag1190
ag1185
ag1185
ag1185
ag1194
ag1195
ag1196
ag1197
ag1187
ag1188
ag1189
ag1190
ag1186
ag1186
ag1186
ag1194
ag1195
ag1196
ag1197
ag1188
ag1189
ag1190
ag1187
ag1187
ag1187
ag1194
ag1195
ag1196
ag1197
ag1189
ag1190
ag1188
ag1188
ag1188
ag1194
ag1195
ag1196
ag1197
ag1190
ag1189
ag1189
ag1189
ag1194
ag1195
ag1196
ag1197
ag1190
ag1190
ag1190
ag1194
ag1195
ag1196
ag1197
ag1192
ag1193
ag1194
ag1195
ag1196
ag1197
ag1193
ag1194
ag1195
ag1196
ag1197
ag1194
ag1195
ag1196
ag1197
ag1195
ag1196
ag1197
ag1196
ag1197
ag1197
aS'one'
p1198
aS'one'
p1199
aS'one'
p1200
aS'one'
p1201
aS'one'
p1202
aS'one'
p1203
aS'one'
p1204
aS'one'
p1205
aS'one'
p1206
aS'one'
p1207
aS'one'
p1208
aS'one'
p1209
aS'one'
p1210
aS'one'
p1211
aS'one'
p1212
aS'one'
p1213
aS'one'
p1214
aS'one'
p1215
aS'one'
p1216
aS'one'
p1217
aS'one'
p1218
aS'one'
p1219
aS'one'
p1220
ag1199
ag1200
ag1201
ag1202
ag1203
ag1204
ag1205
ag1206
ag1207
ag1208
ag1209
ag1210
ag1211
ag1212
ag1213
ag1214
ag1215
ag1216
ag1217
ag1218
ag1219
ag1220
ag1200
ag1201
ag1202
ag1203
ag1204
ag1205
ag1206
ag1207
ag1208
ag1209
ag1210
ag1211
ag1212
ag1213
ag1214
ag1215
ag1216
ag1217
ag1218
ag1219
ag1220
ag1201
ag1202
ag1203
ag1204
ag1205
ag1206
ag1207
ag1208
ag1209
ag1210
ag1211
ag1212
ag1213
ag1214
ag1215
ag1216
ag1217
ag1218
ag1219
ag1220
ag1202
ag1203
ag1204
ag1205
ag1206
ag1207
ag1208
ag1209
ag1210
ag1211
ag1212
ag1213
ag1214
ag1215
ag1216
ag1217
ag1218
ag1219
ag1220
ag1203
ag1204
ag1205
ag1206
ag1207
ag1208
ag1209
ag1210
ag1211
ag1212
ag1213
ag1214
ag1215
ag1216
ag1217
ag1218
ag1219
ag1220
ag1204
ag1205
ag1206
ag1207
ag1208
ag1209
ag1210
ag1211
ag1212
ag1213
ag1214
ag1215
ag1216
ag1217
ag1218
ag1219
ag1220
ag1205
ag1206
ag1207
ag1208
ag1209
ag1210
ag1211
ag1212
ag1213
ag1214
ag1215
ag1216
ag1217
ag1218
ag1219
ag1220
ag1206
ag1207
ag1208
ag1209
ag1210
ag1211
ag1212
ag1213
ag1214
ag1215
ag1216
ag1217
ag1218
ag1219
ag1220
ag1207
ag1208
ag1209
ag1210
ag1211
ag1212
ag1213
ag1214
ag1215
ag1216
ag1217
ag1218
ag1219
ag1220
ag1208
ag1209
ag1210
ag1211
ag1212
ag1213
ag1214
ag1215
ag1216
ag1217
ag1218
ag1219
ag1220
ag1209
ag1210
ag1211
ag1212
ag1213
ag1214
ag1215
ag1216
ag1217
ag1218
ag1219
ag1220
ag1210
ag1211
ag1212
ag1213
ag1214
ag1215
ag1216
ag1217
ag1218
ag1219
ag1220
ag1211
ag1212
ag1213
ag1214
ag1215
ag1216
ag1217
ag1218
ag1219
ag1220
ag1212
ag1213
ag1214
ag1215
ag1216
ag1217
ag1218
ag1219
ag1220
ag1213
ag1214
ag1215
ag1216
ag1217
ag1218
ag1219
ag1220
ag1214
ag1215
ag1216
ag1217
ag1218
ag1219
ag1220
ag1215
ag1216
ag1217
ag1218
ag1219
ag1220
ag1216
ag1217
ag1218
ag1219
ag1220
ag1217
ag1218
ag1219
ag1220
ag1218
ag1219
ag1220
ag1219
ag1220
ag1220
aS'cloud'
p1221
aS'cloud'
p1222
aS'cloud'
p1223
aS'cloud'
p1224
aS'cloud'
p1225
aS'cloud'
p1226
aS'cloud'
p1227
aS'cloud'
p1228
aS'cloud'
p1229
aS'cloud'
p1230
aS'cloud'
p1231
aS'cloud'
p1232
aS'cloud'
p1233
aS'cloud'
p1234
aS'cloud'
p1235
aS'cloud'
p1236
aS'cloud'
p1237
aS'cloud'
p1238
aS'cloud'
p1239
aS'cloud'
p1240
aS'cloud'
p1241
aS'cloud'
p1242
ag1222
ag1223
ag1224
ag1225
ag1226
ag1227
ag1228
ag1229
ag1230
ag1231
ag1232
ag1233
ag1234
ag1235
ag1236
ag1237
ag1238
ag1239
ag1240
ag1241
ag1242
ag1223
ag1224
ag1225
ag1226
ag1227
ag1228
ag1229
ag1230
ag1231
ag1232
ag1233
ag1234
ag1235
ag1236
ag1237
ag1238
ag1239
ag1240
ag1241
ag1242
ag1224
ag1225
ag1226
ag1227
ag1228
ag1229
ag1230
ag1231
ag1232
ag1233
ag1234
ag1235
ag1236
ag1237
ag1238
ag1239
ag1240
ag1241
ag1242
ag1225
ag1226
ag1227
ag1228
ag1229
ag1230
ag1231
ag1232
ag1233
ag1234
ag1235
ag1236
ag1237
ag1238
ag1239
ag1240
ag1241
ag1242
ag1226
ag1227
ag1228
ag1229
ag1230
ag1231
ag1232
ag1233
ag1234
ag1235
ag1236
ag1237
ag1238
ag1239
ag1240
ag1241
ag1242
ag1227
ag1228
ag1229
ag1230
ag1231
ag1232
ag1233
ag1234
ag1235
ag1236
ag1237
ag1238
ag1239
ag1240
ag1241
ag1242
ag1228
ag1229
ag1230
ag1231
ag1232
ag1233
ag1234
ag1235
ag1236
ag1237
ag1238
ag1239
ag1240
ag1241
ag1242
ag1229
ag1230
ag1231
ag1232
ag1233
ag1234
ag1235
ag1236
ag1237
ag1238
ag1239
ag1240
ag1241
ag1242
ag1230
ag1231
ag1232
ag1233
ag1234
ag1235
ag1236
ag1237
ag1238
ag1239
ag1240
ag1241
ag1242
ag1231
ag1232
ag1233
ag1234
ag1235
ag1236
ag1237
ag1238
ag1239
ag1240
ag1241
ag1242
ag1232
ag1233
ag1234
ag1235
ag1236
ag1237
ag1238
ag1239
ag1240
ag1241
ag1242
ag1233
ag1234
ag1235
ag1236
ag1237
ag1238
ag1239
ag1240
ag1241
ag1242
ag1234
ag1235
ag1236
ag1237
ag1238
ag1239
ag1240
ag1241
ag1242
ag1235
ag1236
ag1237
ag1238
ag1239
ag1240
ag1241
ag1242
ag1236
ag1237
ag1238
ag1239
ag1240
ag1241
ag1242
ag1237
ag1238
ag1239
ag1240
ag1241
ag1242
ag1238
ag1239
ag1240
ag1241
ag1242
ag1239
ag1240
ag1241
ag1242
ag1240
ag1241
ag1242
ag1241
ag1242
ag1242
aS'eye'
p1243
aS'eye'
p1244
aS'eye'
p1245
aS'eye'
p1246
aS'eye'
p1247
aS'eye'
p1248
aS'eye'
p1249
aS'eye'
p1250
aS'eye'
p1251
aS'eye'
p1252
aS'eye'
p1253
aS'eye'
p1254
aS'eye'
p1255
aS'eye'
p1256
aS'eye'
p1257
aS'eye'
p1258
aS'eye'
p1259
aS'eye'
p1260
aS'eye'
p1261
aS'eye'
p1262
aS'eye'
p1263
aS'eye'
p1264
aS'eye'
p1265
ag1244
ag1245
ag1246
ag1247
ag1248
ag1249
ag1250
ag1251
ag1252
ag1253
ag1254
ag1255
ag1256
ag1257
ag1258
ag1259
ag1260
ag1261
ag1262
ag1263
ag1264
ag1265
ag1245
ag1246
ag1247
ag1248
ag1249
ag1250
ag1251
ag1252
ag1253
ag1254
ag1255
ag1256
ag1257
ag1258
ag1259
ag1260
ag1261
ag1262
ag1263
ag1264
ag1265
ag1246
ag1247
ag1248
ag1249
ag1250
ag1251
ag1252
ag1253
ag1254
ag1255
ag1256
ag1257
ag1258
ag1259
ag1260
ag1261
ag1262
ag1263
ag1264
ag1265
ag1247
ag1248
ag1249
ag1250
ag1251
ag1252
ag1253
ag1254
ag1255
ag1256
ag1257
ag1258
ag1259
ag1260
ag1261
ag1262
ag1263
ag1264
ag1265
ag1248
ag1249
ag1250
ag1251
ag1252
ag1253
ag1254
ag1255
ag1256
ag1257
ag1258
ag1259
ag1260
ag1261
ag1262
ag1263
ag1264
ag1265
ag1249
ag1250
ag1251
ag1252
ag1253
ag1254
ag1255
ag1256
ag1257
ag1258
ag1259
ag1260
ag1261
ag1262
ag1263
ag1264
ag1265
ag1250
ag1251
ag1252
ag1253
ag1254
ag1255
ag1256
ag1257
ag1258
ag1259
ag1260
ag1261
ag1262
ag1263
ag1264
ag1265
ag1251
ag1252
ag1253
ag1254
ag1255
ag1256
ag1257
ag1258
ag1259
ag1260
ag1261
ag1262
ag1263
ag1264
ag1265
ag1252
ag1253
ag1254
ag1255
ag1256
ag1257
ag1258
ag1259
ag1260
ag1261
ag1262
ag1263
ag1264
ag1265
ag1253
ag1254
ag1255
ag1256
ag1257
ag1258
ag1259
ag1260
ag1261
ag1262
ag1263
ag1264
ag1265
ag1254
ag1255
ag1256
ag1257
ag1258
ag1259
ag1260
ag1261
ag1262
ag1263
ag1264
ag1265
ag1255
ag1256
ag1257
ag1258
ag1259
ag1260
ag1261
ag1262
ag1263
ag1264
ag1265
ag1256
ag1257
ag1258
ag1259
ag1260
ag1261
ag1262
ag1263
ag1264
ag1265
ag1257
ag1258
ag1259
ag1260
ag1261
ag1262
ag1263
ag1264
ag1265
ag1258
ag1259
ag1260
ag1261
ag1262
ag1263
ag1264
ag1265
ag1259
ag1260
ag1261
ag1262
ag1263
ag1264
ag1265
ag1260
ag1261
ag1262
ag1263
ag1264
ag1265
ag1261
ag1262
ag1263
ag1264
ag1265
ag1262
ag1263
ag1264
ag1265
ag1263
ag1264
ag1265
ag1264
ag1265
ag1265
aS'bite'
p1266
aS'bite'
p1267
aS'bite'
p1268
aS'bite'
p1269
aS'bite'
p1270
aS'bite'
p1271
aS'bite'
p1272
aS'bite'
p1273
aS'bite'
p1274
aS'bite'
p1275
aS'bite'
p1276
aS'bite'
p1277
aS'bite'
p1278
aS'bite'
p1279
aS'bite'
p1280
aS'bite'
p1281
aS'bite'
p1282
aS'bite'
p1283
aS'bite'
p1284
aS'bite'
p1285
aS'bite'
p1286
ag1267
ag1266
ag1266
ag1270
ag1271
ag1272
ag1273
ag1274
ag1266
ag1276
ag1277
ag1278
ag1279
ag1280
ag1281
ag1282
ag1283
ag1284
ag1285
ag1286
ag1267
ag1267
ag1270
ag1271
ag1272
ag1273
ag1274
ag1267
ag1276
ag1277
ag1278
ag1279
ag1280
ag1281
ag1282
ag1283
ag1284
ag1285
ag1286
ag1269
ag1270
ag1271
ag1272
ag1273
ag1274
ag1275
ag1276
ag1277
ag1278
ag1279
ag1280
ag1281
ag1282
ag1283
ag1284
ag1285
ag1286
ag1270
ag1271
ag1272
ag1273
ag1274
ag1275
ag1276
ag1277
ag1278
ag1279
ag1280
ag1281
ag1282
ag1283
ag1284
ag1285
ag1286
ag1271
ag1272
ag1273
ag1274
ag1270
ag1276
ag1277
ag1278
ag1279
ag1280
ag1281
ag1282
ag1283
ag1284
ag1285
ag1286
ag1272
ag1273
ag1274
ag1271
ag1276
ag1277
ag1278
ag1279
ag1280
ag1281
ag1282
ag1283
ag1284
ag1285
ag1286
ag1273
ag1274
ag1272
ag1276
ag1277
ag1278
ag1279
ag1280
ag1281
ag1282
ag1283
ag1284
ag1285
ag1286
ag1274
ag1273
ag1276
ag1277
ag1278
ag1279
ag1280
ag1281
ag1282
ag1283
ag1284
ag1285
ag1286
ag1274
ag1276
ag1277
ag1278
ag1279
ag1280
ag1281
ag1282
ag1283
ag1284
ag1285
ag1286
ag1276
ag1277
ag1278
ag1279
ag1280
ag1281
ag1282
ag1283
ag1284
ag1285
ag1286
ag1277
ag1278
ag1279
ag1280
ag1281
ag1282
ag1283
ag1284
ag1285
ag1286
ag1278
ag1279
ag1280
ag1281
ag1282
ag1283
ag1284
ag1285
ag1286
ag1279
ag1280
ag1281
ag1282
ag1283
ag1284
ag1285
ag1286
ag1280
ag1281
ag1282
ag1283
ag1284
ag1285
ag1286
ag1281
ag1282
ag1283
ag1284
ag1285
ag1286
ag1282
ag1283
ag1284
ag1285
ag1286
ag1283
ag1284
ag1285
ag1286
ag1284
ag1285
ag1286
ag1285
ag1286
ag1286
aS'two'
p1287
aS'two'
p1288
aS'two'
p1289
aS'two'
p1290
aS'two'
p1291
aS'two'
p1292
aS'two'
p1293
aS'two'
p1294
aS'two'
p1295
aS'two'
p1296
aS'two'
p1297
aS'two'
p1298
aS'two'
p1299
aS'two'
p1300
aS'two'
p1301
aS'two'
p1302
aS'two'
p1303
aS'two'
p1304
aS'two'
p1305
aS'two'
p1306
aS'two'
p1307
aS'two'
p1308
aS'two'
p1309
ag1288
ag1289
ag1290
ag1291
ag1292
ag1293
ag1294
ag1295
ag1296
ag1297
ag1298
ag1299
ag1300
ag1301
ag1302
ag1303
ag1304
ag1305
ag1306
ag1307
ag1308
ag1309
ag1289
ag1290
ag1291
ag1292
ag1293
ag1294
ag1295
ag1296
ag1297
ag1298
ag1299
ag1300
ag1301
ag1302
ag1303
ag1304
ag1305
ag1306
ag1307
ag1308
ag1309
ag1290
ag1291
ag1292
ag1293
ag1294
ag1295
ag1296
ag1297
ag1298
ag1299
ag1300
ag1301
ag1302
ag1303
ag1304
ag1305
ag1306
ag1307
ag1308
ag1309
ag1291
ag1292
ag1293
ag1294
ag1295
ag1296
ag1297
ag1298
ag1299
ag1300
ag1301
ag1302
ag1303
ag1304
ag1305
ag1306
ag1307
ag1308
ag1309
ag1292
ag1293
ag1294
ag1295
ag1296
ag1297
ag1298
ag1299
ag1300
ag1301
ag1302
ag1303
ag1304
ag1305
ag1306
ag1307
ag1308
ag1309
ag1293
ag1294
ag1295
ag1296
ag1297
ag1298
ag1299
ag1300
ag1301
ag1302
ag1303
ag1304
ag1305
ag1306
ag1307
ag1308
ag1309
ag1294
ag1295
ag1296
ag1297
ag1298
ag1299
ag1300
ag1301
ag1302
ag1303
ag1304
ag1305
ag1306
ag1307
ag1308
ag1309
ag1295
ag1296
ag1297
ag1298
ag1299
ag1300
ag1301
ag1302
ag1303
ag1304
ag1305
ag1306
ag1307
ag1308
ag1309
ag1296
ag1297
ag1298
ag1299
ag1300
ag1301
ag1302
ag1303
ag1304
ag1305
ag1306
ag1307
ag1308
ag1309
ag1297
ag1298
ag1299
ag1300
ag1301
ag1302
ag1303
ag1304
ag1305
ag1306
ag1307
ag1308
ag1309
ag1298
ag1299
ag1300
ag1301
ag1302
ag1303
ag1304
ag1305
ag1306
ag1307
ag1308
ag1309
ag1299
ag1300
ag1301
ag1302
ag1303
ag1304
ag1305
ag1306
ag1307
ag1308
ag1309
ag1300
ag1301
ag1302
ag1303
ag1304
ag1305
ag1306
ag1307
ag1308
ag1309
ag1301
ag1302
ag1303
ag1304
ag1305
ag1306
ag1307
ag1308
ag1309
ag1302
ag1303
ag1304
ag1305
ag1306
ag1307
ag1308
ag1309
ag1303
ag1304
ag1305
ag1306
ag1307
ag1308
ag1309
ag1304
ag1305
ag1306
ag1307
ag1308
ag1309
ag1305
ag1306
ag1307
ag1308
ag1309
ag1306
ag1307
ag1308
ag1309
ag1307
ag1308
ag1309
ag1308
ag1309
ag1309
aS'long'
p1310
aS'long'
p1311
aS'long'
p1312
aS'long'
p1313
aS'long'
p1314
aS'long'
p1315
aS'long'
p1316
aS'long'
p1317
aS'long'
p1318
aS'long'
p1319
aS'long'
p1320
aS'long'
p1321
aS'long'
p1322
aS'long'
p1323
aS'long'
p1324
aS'long'
p1325
aS'long'
p1326
aS'long'
p1327
aS'long'
p1328
ag1328
aS'long'
p1329
aS'long'
p1330
aS'long'
p1331
ag1311
ag1312
ag1313
ag1314
ag1315
ag1316
ag1317
ag1318
ag1319
ag1320
ag1321
ag1322
ag1323
ag1324
ag1325
ag1326
ag1327
ag1310
ag1310
ag1329
ag1330
ag1331
ag1312
ag1313
ag1314
ag1315
ag1316
ag1317
ag1318
ag1319
ag1320
ag1321
ag1322
ag1323
ag1324
ag1325
ag1326
ag1327
ag1311
ag1311
ag1329
ag1330
ag1331
ag1313
ag1314
ag1315
ag1316
ag1317
ag1318
ag1319
ag1320
ag1321
ag1322
ag1323
ag1324
ag1325
ag1326
ag1327
ag1312
ag1312
ag1329
ag1330
ag1331
ag1314
ag1315
ag1316
ag1317
ag1318
ag1319
ag1320
ag1321
ag1322
ag1323
ag1324
ag1325
ag1326
ag1327
ag1313
ag1313
ag1329
ag1330
ag1331
ag1315
ag1316
ag1317
ag1318
ag1319
ag1320
ag1321
ag1322
ag1323
ag1324
ag1325
ag1326
ag1327
ag1314
ag1314
ag1329
ag1330
ag1331
ag1316
ag1317
ag1318
ag1319
ag1320
ag1321
ag1322
ag1323
ag1324
ag1325
ag1326
ag1327
ag1315
ag1315
ag1329
ag1330
ag1331
ag1317
ag1318
ag1319
ag1320
ag1321
ag1322
ag1323
ag1324
ag1325
ag1326
ag1327
ag1316
ag1316
ag1329
ag1330
ag1331
ag1318
ag1319
ag1320
ag1321
ag1322
ag1323
ag1324
ag1325
ag1326
ag1327
ag1317
ag1317
ag1329
ag1330
ag1331
ag1319
ag1320
ag1321
ag1322
ag1323
ag1324
ag1325
ag1326
ag1327
ag1318
ag1318
ag1329
ag1330
ag1331
ag1320
ag1321
ag1322
ag1323
ag1324
ag1325
ag1326
ag1327
ag1319
ag1319
ag1329
ag1330
ag1331
ag1321
ag1322
ag1323
ag1324
ag1325
ag1326
ag1327
ag1320
ag1320
ag1329
ag1330
ag1331
ag1322
ag1323
ag1324
ag1325
ag1326
ag1327
ag1321
ag1321
ag1329
ag1330
ag1331
ag1323
ag1324
ag1325
ag1326
ag1327
ag1322
ag1322
ag1329
ag1330
ag1331
ag1324
ag1325
ag1326
ag1327
ag1323
ag1323
ag1329
ag1330
ag1331
ag1325
ag1326
ag1327
ag1324
ag1324
ag1329
ag1330
ag1331
ag1326
ag1327
ag1325
ag1325
ag1329
ag1330
ag1331
ag1327
ag1326
ag1326
ag1329
ag1330
ag1331
ag1327
ag1327
ag1329
ag1330
ag1331
ag313
ag1329
ag1330
ag1331
ag1329
ag1330
ag1331
ag1330
ag1331
ag1331
aS'white'
p1332
aS'white'
p1333
aS'white'
p1334
aS'white'
p1335
aS'white'
p1336
ag1334
ag1334
aS'white'
p1337
aS'white'
p1338
aS'white'
p1339
aS'white'
p1340
aS'white'
p1341
aS'white'
p1342
aS'white'
p1343
ag1334
ag1334
ag1334
ag1334
ag1334
ag1334
aS'white'
p1344
aS'white'
p1345
ag1334
ag1333
ag1332
ag1335
ag1336
ag1332
ag1332
ag1337
ag1338
ag1339
ag1340
ag1341
ag1342
ag1343
ag1332
ag1332
ag1332
ag1332
ag1332
ag1332
ag1344
ag1345
ag1332
ag1333
ag1335
ag1336
ag1333
ag1333
ag1337
ag1338
ag1339
ag1340
ag1341
ag1342
ag1343
ag1333
ag1333
ag1333
ag1333
ag1333
ag1333
ag1344
ag1345
ag1333
ag1335
ag1336
aS'white'
p1346
ag762
ag1337
ag1338
ag1339
ag1340
ag1341
ag1342
ag1343
ag761
ag756
ag775
ag760
ag771
ag777
ag1344
ag1345
ag767
ag1336
ag1335
ag1335
ag1337
ag1338
ag1339
ag1340
ag1341
ag1342
ag1343
ag1335
ag1335
ag1335
ag1335
ag1335
ag1335
ag1344
ag1345
ag1335
ag1336
ag1336
ag1337
ag1338
ag1339
ag1340
ag1341
ag1342
ag1343
ag1336
ag1336
ag1336
ag1336
ag1336
ag1336
ag1344
ag1345
ag1336
ag762
ag1337
ag1338
ag1339
ag1340
ag1341
ag1342
ag1343
ag761
ag756
ag775
ag760
ag771
ag777
ag1344
ag1345
ag1346
ag1337
ag1338
ag1339
ag1340
ag1341
ag1342
ag1343
ag761
ag756
ag775
ag760
ag771
ag777
ag1344
ag1345
ag762
ag1338
ag1339
ag1340
ag1341
ag1342
ag1343
ag1337
ag1337
ag1337
ag1337
ag1337
ag1337
ag1344
ag1345
ag1337
ag1339
ag1340
ag1341
ag1342
ag1343
ag1338
ag1338
ag1338
ag1338
ag1338
ag1338
ag1344
ag1345
ag1338
ag1340
ag1341
ag1342
ag1343
ag1339
ag1339
ag1339
ag1339
ag1339
ag1339
ag1344
ag1345
ag1339
ag1341
ag1342
ag1343
ag1340
ag1340
ag1340
ag1340
ag1340
ag1340
ag1344
ag1345
ag1340
ag1342
ag1343
ag1341
ag1341
ag1341
ag1341
ag1341
ag1341
ag1344
ag1345
ag1341
ag1343
ag1342
ag1342
ag1342
ag1342
ag1342
ag1342
ag1344
ag1345
ag1342
ag1343
ag1343
ag1343
ag1343
ag1343
ag1343
ag1344
ag1345
ag1343
ag756
ag775
ag760
ag771
ag777
ag1344
ag1345
ag761
ag775
ag760
ag771
ag777
ag1344
ag1345
ag756
ag760
ag771
ag777
ag1344
ag1345
ag775
ag771
ag777
ag1344
ag1345
ag760
ag777
ag1344
ag1345
ag771
ag1344
ag1345
ag777
ag1345
ag1344
ag1345
aS'head'
p1347
aS'head'
p1348
aS'head'
p1349
aS'head'
p1350
aS'head'
p1351
aS'head'
p1352
aS'head'
p1353
aS'head'
p1354
aS'head'
p1355
aS'head'
p1356
aS'head'
p1357
aS'head'
p1358
aS'head'
p1359
aS'head'
p1360
aS'head'
p1361
aS'head'
p1362
aS'head'
p1363
aS'head'
p1364
aS'head'
p1365
aS'head'
p1366
aS'head'
p1367
aS'head'
p1368
ag1348
ag1349
ag1350
ag1351
ag1352
ag1353
ag1354
ag1355
ag1356
ag1357
ag1358
ag1359
ag1360
ag1361
ag1362
ag1363
ag1364
ag1365
ag1366
ag1367
ag1368
ag1349
ag1350
ag1351
ag1352
ag1353
ag1354
ag1355
ag1356
ag1357
ag1358
ag1359
ag1360
ag1361
ag1362
ag1363
ag1364
ag1365
ag1366
ag1367
ag1368
ag1350
ag1351
ag1352
ag1353
ag1354
ag1355
ag1356
ag1357
ag1358
ag1359
ag1360
ag1361
ag1362
ag1363
ag1364
ag1365
ag1366
ag1367
ag1368
ag1351
ag1352
ag1353
ag1354
ag1355
ag1356
ag1357
ag1358
ag1359
ag1360
ag1361
ag1362
ag1363
ag1364
ag1365
ag1366
ag1367
ag1368
ag1352
ag1353
ag1354
ag1355
ag1356
ag1357
ag1358
ag1359
ag1360
ag1361
ag1362
ag1363
ag1364
ag1365
ag1366
ag1367
ag1368
ag1353
ag1354
ag1355
ag1356
ag1357
ag1358
ag1359
ag1360
ag1361
ag1362
ag1363
ag1364
ag1365
ag1366
ag1367
ag1368
ag1354
ag1355
ag1356
ag1357
ag1358
ag1359
ag1360
ag1361
ag1362
ag1363
ag1364
ag1365
ag1366
ag1367
ag1368
ag1355
ag1356
ag1357
ag1358
ag1359
ag1360
ag1361
ag1362
ag1363
ag1364
ag1365
ag1366
ag1367
ag1368
ag1356
ag1357
ag1358
ag1359
ag1360
ag1361
ag1362
ag1363
ag1364
ag1365
ag1366
ag1367
ag1368
ag1357
ag1358
ag1359
ag1360
ag1361
ag1362
ag1363
ag1364
ag1365
ag1366
ag1367
ag1368
ag1358
ag1359
ag1360
ag1361
ag1362
ag1363
ag1364
ag1365
ag1366
ag1367
ag1368
ag1359
ag1360
ag1361
ag1362
ag1363
ag1364
ag1365
ag1366
ag1367
ag1368
ag1360
ag1361
ag1362
ag1363
ag1364
ag1365
ag1366
ag1367
ag1368
ag1361
ag1362
ag1363
ag1364
ag1365
ag1366
ag1367
ag1368
ag1362
ag1363
ag1364
ag1365
ag1366
ag1367
ag1368
ag1363
ag1364
ag1365
ag1366
ag1367
ag1368
ag1364
ag1365
ag1366
ag1367
ag1368
ag1365
ag1366
ag1367
ag1368
ag1366
ag1367
ag1368
ag1367
ag1368
ag1368
aS'that'
p1369
aS'that'
p1370
aS'that'
p1371
aS'that'
p1372
aS'that'
p1373
aS'that'
p1374
aS'that'
p1375
aS'that'
p1376
aS'that'
p1377
aS'that'
p1378
aS'that'
p1379
aS'that'
p1380
aS'that'
p1381
aS'that'
p1382
aS'that'
p1383
aS'that'
p1384
aS'that'
p1385
aS'that'
p1386
aS'that'
p1387
aS'that'
p1388
aS'that'
p1389
ag1370
ag1371
ag1372
ag1373
ag1374
ag1375
ag1376
ag1369
ag1378
ag1379
ag1380
ag1381
ag1382
ag1383
ag1384
ag1385
ag1386
ag1387
ag1388
ag1389
ag1371
ag1372
ag1373
ag1374
ag1375
ag1376
ag1370
ag1378
ag1379
ag1380
ag1381
ag1382
ag1383
ag1384
ag1385
ag1386
ag1387
ag1388
ag1389
ag1372
ag1373
ag1374
ag1375
ag1376
ag1371
ag1378
ag1379
ag1380
ag1381
ag1382
ag1383
ag1384
ag1385
ag1386
ag1387
ag1388
ag1389
ag1373
ag1374
ag1375
ag1376
ag1372
ag1378
ag1379
ag1380
ag1381
ag1382
ag1383
ag1384
ag1385
ag1386
ag1387
ag1388
ag1389
ag1374
ag1375
ag1376
ag1373
ag1378
ag1379
ag1380
ag1381
ag1382
ag1383
ag1384
ag1385
ag1386
ag1387
ag1388
ag1389
ag1375
ag1376
ag1374
ag1378
ag1379
ag1380
ag1381
ag1382
ag1383
ag1384
ag1385
ag1386
ag1387
ag1388
ag1389
ag1376
ag1375
ag1378
ag1379
ag1380
ag1381
ag1382
ag1383
ag1384
ag1385
ag1386
ag1387
ag1388
ag1389
ag1376
ag1378
ag1379
ag1380
ag1381
ag1382
ag1383
ag1384
ag1385
ag1386
ag1387
ag1388
ag1389
ag1378
ag1379
ag1380
ag1381
ag1382
ag1383
ag1384
ag1385
ag1386
ag1387
ag1388
ag1389
ag1379
ag1380
ag1381
ag1382
ag1383
ag1384
ag1385
ag1386
ag1387
ag1388
ag1389
ag1380
ag1381
ag1382
ag1383
ag1384
ag1385
ag1386
ag1387
ag1388
ag1389
ag1381
ag1382
ag1383
ag1384
ag1385
ag1386
ag1387
ag1388
ag1389
ag1382
ag1383
ag1384
ag1385
ag1386
ag1387
ag1388
ag1389
ag1383
ag1384
ag1385
ag1386
ag1387
ag1388
ag1389
ag1384
ag1385
ag1386
ag1387
ag1388
ag1389
ag1385
ag1386
ag1387
ag1388
ag1389
ag1386
ag1387
ag1388
ag1389
ag1387
ag1388
ag1389
ag1388
ag1389
ag1389
aS'fire'
p1390
aS'fire'
p1391
aS'fire'
p1392
aS'fire'
p1393
aS'fire'
p1394
aS'fire'
p1395
ag1392
aS'fire'
p1396
aS'fire'
p1397
aS'fire'
p1398
aS'fire'
p1399
aS'fire'
p1400
aS'fire'
p1401
aS'fire'
p1402
aS'fire'
p1403
aS'fire'
p1404
aS'fire'
p1405
aS'fire'
p1406
aS'fire'
p1407
aS'fire'
p1408
aS'fire'
p1409
aS'fire'
p1410
aS'fire'
p1411
ag1391
ag1390
ag1393
ag1394
ag1395
ag1390
ag1396
ag1397
ag1398
ag1399
ag1400
ag1401
ag1402
ag1403
ag1404
ag1405
ag1406
ag1407
ag1408
ag1409
ag1410
ag1411
ag1391
ag1393
ag1394
ag1395
ag1391
ag1396
ag1397
ag1398
ag1399
ag1400
ag1401
ag1402
ag1403
ag1404
ag1405
ag1406
ag1407
ag1408
ag1409
ag1410
ag1411
ag1393
ag1394
ag1395
aS'fire'
p1412
ag1396
ag1397
ag1398
ag1399
ag1400
ag1401
ag1402
ag1403
ag1404
ag1405
ag1406
ag1407
ag1408
ag1409
ag1410
ag1411
ag1394
ag1395
ag1393
ag1396
ag1397
ag1398
ag1399
ag1400
ag1401
ag1402
ag1403
ag1404
ag1405
ag1406
ag1407
ag1408
ag1409
ag1410
ag1411
ag1395
ag1394
ag1396
ag1397
ag1398
ag1399
ag1400
ag1401
ag1402
ag1403
ag1404
ag1405
ag1406
ag1407
ag1408
ag1409
ag1410
ag1411
ag1395
ag1396
ag1397
ag1398
ag1399
ag1400
ag1401
ag1402
ag1403
ag1404
ag1405
ag1406
ag1407
ag1408
ag1409
ag1410
ag1411
ag1396
ag1397
ag1398
ag1399
ag1400
ag1401
ag1402
ag1403
ag1404
ag1405
ag1406
ag1407
ag1408
ag1409
ag1410
ag1411
ag1397
ag1398
ag1399
ag1400
ag1401
ag1402
ag1403
ag1404
ag1405
ag1406
ag1407
ag1408
ag1409
ag1410
ag1411
ag1398
ag1399
ag1400
ag1401
ag1402
ag1403
ag1404
ag1405
ag1406
ag1407
ag1408
ag1409
ag1410
ag1411
ag1399
ag1400
ag1401
ag1402
ag1403
ag1404
ag1405
ag1406
ag1407
ag1408
ag1409
ag1410
ag1411
ag1400
ag1401
ag1402
ag1403
ag1404
ag1405
ag1406
ag1407
ag1408
ag1409
ag1410
ag1411
ag1401
ag1402
ag1403
ag1404
ag1405
ag1406
ag1407
ag1408
ag1409
ag1410
ag1411
ag1402
ag1403
ag1404
ag1405
ag1406
ag1407
ag1408
ag1409
ag1410
ag1411
ag1403
ag1404
ag1405
ag1406
ag1407
ag1408
ag1409
ag1410
ag1411
ag1404
ag1405
ag1406
ag1407
ag1408
ag1409
ag1410
ag1411
ag1405
ag1406
ag1407
ag1408
ag1409
ag1410
ag1411
ag1406
ag1407
ag1408
ag1409
ag1410
ag1411
ag1407
ag1408
ag1409
ag1410
ag1411
ag1408
ag1409
ag1410
ag1411
ag1409
ag1410
ag1411
ag1410
ag1411
ag1411
aS'hear'
p1413
aS'hear'
p1414
aS'hear'
p1415
aS'hear'
p1416
aS'hear'
p1417
aS'hear'
p1418
aS'hear'
p1419
aS'hear'
p1420
aS'hear'
p1421
aS'hear'
p1422
aS'hear'
p1423
aS'hear'
p1424
aS'hear'
p1425
aS'hear'
p1426
aS'hear'
p1427
aS'hear'
p1428
aS'hear'
p1429
aS'hear'
p1430
aS'hear'
p1431
aS'hear'
p1432
aS'hear'
p1433
aS'hear'
p1434
ag1414
ag1415
ag1416
ag1417
ag1418
ag1419
ag1420
ag1421
ag1422
ag1423
ag1413
ag1425
ag1426
ag1427
ag1428
ag1429
ag1430
ag1431
ag1432
ag1433
ag1434
ag1415
ag1416
ag1417
ag1418
ag1419
ag1420
ag1421
ag1422
ag1423
ag1414
ag1425
ag1426
ag1427
ag1428
ag1429
ag1430
ag1431
ag1432
ag1433
ag1434
ag1416
ag1417
ag1418
ag1419
ag1420
ag1421
ag1422
ag1423
ag1415
ag1425
ag1426
ag1427
ag1428
ag1429
ag1430
ag1431
ag1432
ag1433
ag1434
ag1417
ag1418
ag1419
ag1420
ag1421
ag1422
ag1423
ag1416
ag1425
ag1426
ag1427
ag1428
ag1429
ag1430
ag1431
ag1432
ag1433
ag1434
ag1418
ag1419
ag1420
ag1421
ag1422
ag1423
ag1417
ag1425
ag1426
ag1427
ag1428
ag1429
ag1430
ag1431
ag1432
ag1433
ag1434
ag1419
ag1420
ag1421
ag1422
ag1423
ag1418
ag1425
ag1426
ag1427
ag1428
ag1429
ag1430
ag1431
ag1432
ag1433
ag1434
ag1420
ag1421
ag1422
ag1423
ag1419
ag1425
ag1426
ag1427
ag1428
ag1429
ag1430
ag1431
ag1432
ag1433
ag1434
ag1421
ag1422
ag1423
ag1420
ag1425
ag1426
ag1427
ag1428
ag1429
ag1430
ag1431
ag1432
ag1433
ag1434
ag1422
ag1423
ag1421
ag1425
ag1426
ag1427
ag1428
ag1429
ag1430
ag1431
ag1432
ag1433
ag1434
ag1423
ag1422
ag1425
ag1426
ag1427
ag1428
ag1429
ag1430
ag1431
ag1432
ag1433
ag1434
ag1423
ag1425
ag1426
ag1427
ag1428
ag1429
ag1430
ag1431
ag1432
ag1433
ag1434
ag1425
ag1426
ag1427
ag1428
ag1429
ag1430
ag1431
ag1432
ag1433
ag1434
ag1426
ag1427
ag1428
ag1429
ag1430
ag1431
ag1432
ag1433
ag1434
ag1427
ag1428
ag1429
ag1430
ag1431
ag1432
ag1433
ag1434
ag1428
ag1429
ag1430
ag1431
ag1432
ag1433
ag1434
ag1429
ag1430
ag1431
ag1432
ag1433
ag1434
ag1430
ag1431
ag1432
ag1433
ag1434
ag1431
ag1432
ag1433
ag1434
ag1432
ag1433
ag1434
ag1433
ag1434
ag1434
aS'liver'
p1435
aS'liver'
p1436
aS'liver'
p1437
ag1435
aS'liver'
p1438
aS'liver'
p1439
aS'liver'
p1440
aS'liver'
p1441
aS'liver'
p1442
aS'liver'
p1443
aS'liver'
p1444
aS'liver'
p1445
ag1435
aS'liver'
p1446
aS'liver'
p1447
aS'liver'
p1448
aS'liver'
p1449
aS'liver'
p1450
aS'liver'
p1451
aS'liver'
p1452
aS'liver'
p1453
aS'liver'
p1454
ag1436
ag1437
aS'earth'
p1455
ag1438
ag1439
ag1440
ag1441
ag1442
ag1443
ag1444
ag1445
aS'liver'
p1456
ag1446
ag1447
ag1448
ag1449
ag1450
ag1451
ag1452
ag1453
ag1454
ag1437
ag1436
ag1438
ag1439
ag1440
ag1441
ag1442
ag1443
ag1444
ag1445
ag1436
ag1446
ag1447
ag1448
ag1449
ag1450
ag1451
ag1452
ag1453
ag1454
ag1437
ag1438
ag1439
ag1440
ag1441
ag1442
ag1443
ag1444
ag1445
ag1437
ag1446
ag1447
ag1448
ag1449
ag1450
ag1451
ag1452
ag1453
ag1454
ag1438
ag1439
ag1440
ag1441
ag1442
ag1443
ag1444
ag1445
ag1456
ag1446
ag1447
ag1448
ag1449
ag1450
ag1451
ag1452
ag1453
ag1454
ag1439
ag1440
ag1441
ag1442
ag1443
ag1444
ag1445
ag1438
ag1446
ag1447
ag1448
ag1449
ag1450
ag1451
ag1452
ag1453
ag1454
ag1440
ag1441
ag1442
ag1443
ag1444
ag1445
ag1439
ag1446
ag1447
ag1448
ag1449
ag1450
ag1451
ag1452
ag1453
ag1454
ag1441
ag1442
ag1443
ag1444
ag1445
ag1440
ag1446
ag1447
ag1448
ag1449
ag1450
ag1451
ag1452
ag1453
ag1454
ag1442
ag1443
ag1444
ag1445
ag1441
ag1446
ag1447
ag1448
ag1449
ag1450
ag1451
ag1452
ag1453
ag1454
ag1443
ag1444
ag1445
ag1442
ag1446
ag1447
ag1448
ag1449
ag1450
ag1451
ag1452
ag1453
ag1454
ag1444
ag1445
ag1443
ag1446
ag1447
ag1448
ag1449
ag1450
ag1451
ag1452
ag1453
ag1454
ag1445
ag1444
ag1446
ag1447
ag1448
ag1449
ag1450
ag1451
ag1452
ag1453
ag1454
ag1445
ag1446
ag1447
ag1448
ag1449
ag1450
ag1451
ag1452
ag1453
ag1454
ag1446
ag1447
ag1448
ag1449
ag1450
ag1451
ag1452
ag1453
ag1454
ag1447
ag1448
ag1449
ag1450
ag1451
ag1452
ag1453
ag1454
ag1448
ag1449
ag1450
ag1451
ag1452
ag1453
ag1454
ag1449
ag1450
ag1451
ag1452
ag1453
ag1454
ag1450
ag1451
ag1452
ag1453
ag1454
ag1451
ag1452
ag1453
ag1454
ag1452
ag1453
ag1454
ag1453
ag1454
ag1454
aS'ear'
p1457
aS'ear'
p1458
aS'ear'
p1459
aS'ear'
p1460
aS'ear'
p1461
aS'ear'
p1462
aS'ear'
p1463
aS'ear'
p1464
aS'ear'
p1465
aS'ear'
p1466
aS'ear'
p1467
aS'ear'
p1468
aS'ear'
p1469
aS'ear'
p1470
aS'ear'
p1471
aS'ear'
p1472
aS'ear'
p1473
aS'ear'
p1474
aS'ear'
p1475
aS'ear'
p1476
aS'ear'
p1477
aS'ear'
p1478
aS'ear'
p1479
ag1458
ag1459
ag1460
ag1461
ag1462
ag1463
ag1464
ag1465
ag1466
ag1467
ag1468
ag1469
ag1470
ag1471
ag1472
ag1473
ag1474
ag1475
ag1476
ag1477
ag1478
ag1479
ag1459
ag1460
ag1461
ag1462
ag1463
ag1464
ag1465
ag1466
ag1467
ag1468
ag1469
ag1470
ag1471
ag1472
ag1473
ag1474
ag1475
ag1476
ag1477
ag1478
ag1479
ag1460
ag1461
ag1462
ag1463
ag1464
ag1465
ag1466
ag1467
ag1468
ag1469
ag1470
ag1471
ag1472
ag1473
ag1474
ag1475
ag1476
ag1477
ag1478
ag1479
ag1461
ag1462
ag1463
ag1464
ag1465
ag1466
ag1467
ag1468
ag1469
ag1470
ag1471
ag1472
ag1473
ag1474
ag1475
ag1476
ag1477
ag1478
ag1479
ag1462
ag1463
ag1464
ag1465
ag1466
ag1467
ag1468
ag1469
ag1470
ag1471
ag1472
ag1473
ag1474
ag1475
ag1476
ag1477
ag1478
ag1479
ag1463
ag1464
ag1465
ag1466
ag1467
ag1468
ag1469
ag1470
ag1471
ag1472
ag1473
ag1474
ag1475
ag1476
ag1477
ag1478
ag1479
ag1464
ag1465
ag1466
ag1467
ag1468
ag1469
ag1470
ag1471
ag1472
ag1473
ag1474
ag1475
ag1476
ag1477
ag1478
ag1479
ag1465
ag1466
ag1467
ag1468
ag1469
ag1470
ag1471
ag1472
ag1473
ag1474
ag1475
ag1476
ag1477
ag1478
ag1479
ag1466
ag1467
ag1468
ag1469
ag1470
ag1471
ag1472
ag1473
ag1474
ag1475
ag1476
ag1477
ag1478
ag1479
ag1467
ag1468
ag1469
ag1470
ag1471
ag1472
ag1473
ag1474
ag1475
ag1476
ag1477
ag1478
ag1479
ag1468
ag1469
ag1470
ag1471
ag1472
ag1473
ag1474
ag1475
ag1476
ag1477
ag1478
ag1479
ag1469
ag1470
ag1471
ag1472
ag1473
ag1474
ag1475
ag1476
ag1477
ag1478
ag1479
ag1470
ag1471
ag1472
ag1473
ag1474
ag1475
ag1476
ag1477
ag1478
ag1479
ag1471
ag1472
ag1473
ag1474
ag1475
ag1476
ag1477
ag1478
ag1479
ag1472
ag1473
ag1474
ag1475
ag1476
ag1477
ag1478
ag1479
ag1473
ag1474
ag1475
ag1476
ag1477
ag1478
ag1479
ag1474
ag1475
ag1476
ag1477
ag1478
ag1479
ag1475
ag1476
ag1477
ag1478
ag1479
ag1476
ag1477
ag1478
ag1479
ag1477
ag1478
ag1479
ag1478
ag1479
ag1479
aS'feather'
p1480
aS'feather'
p1481
aS'feather'
p1482
aS'feather'
p1483
ag1482
aS'feather'
p1484
aS'feather'
p1485
ag1482
aS'feather'
p1486
aS'feather'
p1487
ag1482
aS'feather'
p1488
ag1482
aS'feather'
p1489
aS'feather'
p1490
aS'feather'
p1491
aS'feather'
p1492
aS'feather'
p1493
aS'feather'
p1494
aS'feather'
p1495
ag1482
aS'feather'
p1496
ag1482
ag1481
ag1480
ag1483
ag1480
ag1484
ag1485
ag1480
ag1486
ag1487
ag1480
ag1488
ag1480
ag1489
ag1490
ag1491
ag1492
ag1493
ag1494
ag1495
ag1480
ag1496
ag1480
ag1481
ag1483
ag1481
ag1484
ag1485
ag1481
ag1486
ag1487
ag1481
ag1488
ag1481
ag1489
ag1490
ag1491
ag1492
ag1493
ag1494
ag1495
ag1481
ag1496
ag1481
ag1483
ag667
ag1484
ag1485
ag666
ag1486
ag1487
ag668
ag1488
ag669
ag1489
ag1490
ag1491
ag1492
ag1493
ag1494
ag1495
aS'feather'
p1497
ag1496
ag665
ag1483
ag1484
ag1485
ag1483
ag1486
ag1487
ag1483
ag1488
ag1483
ag1489
ag1490
ag1491
ag1492
ag1493
ag1494
ag1495
ag1483
ag1496
ag1483
ag1484
ag1485
ag666
ag1486
ag1487
ag668
ag1488
ag669
ag1489
ag1490
ag1491
ag1492
ag1493
ag1494
ag1495
ag1497
ag1496
ag665
ag1485
ag1484
ag1486
ag1487
ag1484
ag1488
ag1484
ag1489
ag1490
ag1491
ag1492
ag1493
ag1494
ag1495
ag1484
ag1496
ag1484
ag1485
ag1486
ag1487
ag1485
ag1488
ag1485
ag1489
ag1490
ag1491
ag1492
ag1493
ag1494
ag1495
ag1485
ag1496
ag1485
ag1486
ag1487
ag668
ag1488
ag669
ag1489
ag1490
ag1491
ag1492
ag1493
ag1494
ag1495
ag1497
ag1496
ag665
ag1487
ag1486
ag1488
ag1486
ag1489
ag1490
ag1491
ag1492
ag1493
ag1494
ag1495
ag1486
ag1496
ag1486
ag1487
ag1488
ag1487
ag1489
ag1490
ag1491
ag1492
ag1493
ag1494
ag1495
ag1487
ag1496
ag1487
ag1488
ag669
ag1489
ag1490
ag1491
ag1492
ag1493
ag1494
ag1495
ag1497
ag1496
ag665
ag1488
ag1489
ag1490
ag1491
ag1492
ag1493
ag1494
ag1495
ag1488
ag1496
ag1488
ag1489
ag1490
ag1491
ag1492
ag1493
ag1494
ag1495
ag1497
ag1496
ag665
ag1490
ag1491
ag1492
ag1493
ag1494
ag1495
ag1489
ag1496
ag1489
ag1491
ag1492
ag1493
ag1494
ag1495
ag1490
ag1496
ag1490
ag1492
ag1493
ag1494
ag1495
ag1491
ag1496
ag1491
ag1493
ag1494
ag1495
ag1492
ag1496
ag1492
ag1494
ag1495
ag1493
ag1496
ag1493
ag1495
ag1494
ag1496
ag1494
ag1495
ag1496
ag1495
ag1496
aS'feather'
p1498
ag1496
aS'fly'
p1499
aS'fly'
p1500
aS'fly'
p1501
aS'fly'
p1502
aS'fly'
p1503
aS'fly'
p1504
aS'fly'
p1505
aS'fly'
p1506
aS'fly'
p1507
aS'fly'
p1508
aS'fly'
p1509
aS'fly'
p1510
aS'fly'
p1511
aS'fly'
p1512
aS'fly'
p1513
aS'fly'
p1514
aS'fly'
p1515
aS'fly'
p1516
aS'fly'
p1517
aS'fly'
p1518
aS'fly'
p1519
ag1500
ag1501
ag1502
ag1503
ag1504
ag1505
ag1506
ag1507
ag1508
ag1509
ag1510
ag1511
ag1512
ag1513
ag1514
ag1515
ag1516
ag1517
ag1518
ag1519
ag1501
ag1502
ag1503
ag1504
ag1505
ag1506
ag1507
ag1508
ag1509
ag1510
ag1511
ag1512
ag1513
ag1514
ag1515
ag1516
ag1517
ag1518
ag1519
ag1502
ag1503
ag1504
ag1505
ag1506
ag1507
ag1508
ag1509
ag1510
ag1511
ag1512
ag1513
ag1514
ag1515
ag1516
ag1517
ag1518
ag1519
ag1503
ag1504
ag1505
ag1506
ag1507
ag1508
ag1509
ag1510
ag1511
ag1512
ag1513
ag1514
ag1515
ag1516
ag1517
ag1518
ag1519
ag1504
ag1505
ag1506
ag1507
ag1508
ag1509
ag1510
ag1511
ag1512
ag1513
ag1514
ag1515
ag1516
ag1517
ag1518
ag1519
ag1505
ag1506
ag1507
ag1508
ag1509
ag1510
ag1511
ag1512
ag1513
ag1514
ag1515
ag1516
ag1517
ag1518
ag1519
ag1506
ag1507
ag1508
ag1509
ag1510
ag1511
ag1512
ag1513
ag1514
ag1515
ag1516
ag1517
ag1518
ag1519
ag1507
ag1508
ag1509
ag1510
ag1511
ag1512
ag1513
ag1514
ag1515
ag1516
ag1517
ag1518
ag1519
ag1508
ag1509
ag1510
ag1511
ag1512
ag1513
ag1514
ag1515
ag1516
ag1517
ag1518
ag1519
ag1509
ag1510
ag1511
ag1512
ag1513
ag1514
ag1515
ag1516
ag1517
ag1518
ag1519
ag1510
ag1511
ag1512
ag1513
ag1514
ag1515
ag1516
ag1517
ag1518
ag1519
ag1511
ag1512
ag1513
ag1514
ag1515
ag1516
ag1517
ag1518
ag1519
ag1512
ag1513
ag1514
ag1515
ag1516
ag1517
ag1518
ag1519
ag1513
ag1514
ag1515
ag1516
ag1517
ag1518
ag1519
ag1514
ag1515
ag1516
ag1517
ag1518
ag1519
ag1515
ag1516
ag1517
ag1518
ag1519
ag1516
ag1517
ag1518
ag1519
ag1517
ag1518
ag1519
ag1518
ag1519
ag1519
aS'this'
p1520
aS'this'
p1521
aS'this'
p1522
aS'this'
p1523
aS'this'
p1524
aS'this'
p1525
aS'this'
p1526
aS'this'
p1527
aS'this'
p1528
aS'this'
p1529
aS'this'
p1530
aS'this'
p1531
aS'this'
p1532
aS'this'
p1533
aS'this'
p1534
aS'this'
p1535
aS'this'
p1536
aS'this'
p1537
aS'this'
p1538
aS'this'
p1539
aS'this'
p1540
ag1521
ag1522
ag1523
ag1524
ag1525
ag1526
ag1527
ag1528
ag1529
ag1530
ag1531
ag1532
ag1533
ag1534
ag1520
ag1536
ag1537
ag1538
ag1539
ag1540
ag1522
ag1523
ag1524
ag1525
ag1526
ag1527
ag1528
ag1529
ag1530
ag1531
ag1532
ag1533
ag1534
ag1521
ag1536
ag1537
ag1538
ag1539
ag1540
ag1523
ag1524
ag1525
ag1526
ag1527
ag1528
ag1529
ag1530
ag1531
ag1532
ag1533
ag1534
ag1522
ag1536
ag1537
ag1538
ag1539
ag1540
ag1524
ag1525
ag1526
ag1527
ag1528
ag1529
ag1530
ag1531
ag1532
ag1533
ag1534
ag1523
ag1536
ag1537
ag1538
ag1539
ag1540
ag1525
ag1526
ag1527
ag1528
ag1529
ag1530
ag1531
ag1532
ag1533
ag1534
ag1524
ag1536
ag1537
ag1538
ag1539
ag1540
ag1526
ag1527
ag1528
ag1529
ag1530
ag1531
ag1532
ag1533
ag1534
ag1525
ag1536
ag1537
ag1538
ag1539
ag1540
ag1527
ag1528
ag1529
ag1530
ag1531
ag1532
ag1533
ag1534
ag1526
ag1536
ag1537
ag1538
ag1539
ag1540
ag1528
ag1529
ag1530
ag1531
ag1532
ag1533
ag1534
ag1527
ag1536
ag1537
ag1538
ag1539
ag1540
ag1529
ag1530
ag1531
ag1532
ag1533
ag1534
ag1528
ag1536
ag1537
ag1538
ag1539
ag1540
ag1530
ag1531
ag1532
ag1533
ag1534
ag1529
ag1536
ag1537
ag1538
ag1539
ag1540
ag1531
ag1532
ag1533
ag1534
ag1530
ag1536
ag1537
ag1538
ag1539
ag1540
ag1532
ag1533
ag1534
ag1531
ag1536
ag1537
ag1538
ag1539
ag1540
ag1533
ag1534
ag1532
ag1536
ag1537
ag1538
ag1539
ag1540
ag1534
ag1533
ag1536
ag1537
ag1538
ag1539
ag1540
ag1534
ag1536
ag1537
ag1538
ag1539
ag1540
ag1536
ag1537
ag1538
ag1539
ag1540
ag1537
ag1538
ag1539
ag1540
ag1538
ag1539
ag1540
ag1539
ag1540
ag1540
aS'tree'
p1541
aS'tree'
p1542
aS'tree'
p1543
aS'tree'
p1544
aS'tree'
p1545
aS'tree'
p1546
aS'tree'
p1547
aS'tree'
p1548
aS'tree'
p1549
aS'tree'
p1550
aS'tree'
p1551
aS'tree'
p1552
aS'tree'
p1553
aS'tree'
p1554
aS'tree'
p1555
aS'tree'
p1556
aS'tree'
p1557
aS'tree'
p1558
aS'tree'
p1559
aS'tree'
p1560
aS'tree'
p1561
aS'tree'
p1562
aS'tree'
p1563
ag1542
ag1543
ag1544
ag1545
ag1546
ag1547
ag1548
ag1549
ag1550
ag1551
ag1552
ag1553
ag1554
ag1555
ag1556
ag1557
ag1558
ag1559
ag1560
ag1561
ag1562
ag1563
ag1543
ag1544
ag1545
ag1546
ag1547
ag1548
ag1549
ag1550
ag1551
ag1552
ag1553
ag1554
ag1555
ag1556
ag1557
ag1558
ag1559
ag1560
ag1561
ag1562
ag1563
ag1544
ag1545
ag1546
ag1547
ag1548
ag1549
ag1550
ag1551
ag1552
ag1553
ag1554
ag1555
ag1556
ag1557
ag1558
ag1559
ag1560
ag1561
ag1562
ag1563
ag1545
ag1546
ag1547
ag1548
ag1549
ag1550
ag1551
ag1552
ag1553
ag1554
ag1555
ag1556
ag1557
ag1558
ag1559
ag1560
ag1561
ag1562
ag1563
ag1546
ag1547
ag1548
ag1549
ag1550
ag1551
ag1552
ag1553
ag1554
ag1555
ag1556
ag1557
ag1558
ag1559
ag1560
ag1561
ag1562
ag1563
ag1547
ag1548
ag1549
ag1550
ag1551
ag1552
ag1553
ag1554
ag1555
ag1556
ag1557
ag1558
ag1559
ag1560
ag1561
ag1562
ag1563
ag1548
ag1549
ag1550
ag1551
ag1552
ag1553
ag1554
ag1555
ag1556
ag1557
ag1558
ag1559
ag1560
ag1561
ag1562
ag1563
ag1549
ag1550
ag1551
ag1552
ag1553
ag1554
ag1555
ag1556
ag1557
ag1558
ag1559
ag1560
ag1561
ag1562
ag1563
ag1550
ag1551
ag1552
ag1553
ag1554
ag1555
ag1556
ag1557
ag1558
ag1559
ag1560
ag1561
ag1562
ag1563
ag1551
ag1552
ag1553
ag1554
ag1555
ag1556
ag1557
ag1558
ag1559
ag1560
ag1561
ag1562
ag1563
ag1552
ag1553
ag1554
ag1555
ag1556
ag1557
ag1558
ag1559
ag1560
ag1561
ag1562
ag1563
ag1553
ag1554
ag1555
ag1556
ag1557
ag1558
ag1559
ag1560
ag1561
ag1562
ag1563
ag1554
ag1555
ag1556
ag1557
ag1558
ag1559
ag1560
ag1561
ag1562
ag1563
ag1555
ag1556
ag1557
ag1558
ag1559
ag1560
ag1561
ag1562
ag1563
ag1556
ag1557
ag1558
ag1559
ag1560
ag1561
ag1562
ag1563
ag1557
ag1558
ag1559
ag1560
ag1561
ag1562
ag1563
ag1558
ag1559
ag1560
ag1561
ag1562
ag1563
ag1559
ag1560
ag1561
ag1562
ag1563
ag1560
ag1561
ag1562
ag1563
ag1561
ag1562
ag1563
ag1562
ag1563
ag1563
aS'seed'
p1564
aS'seed'
p1565
aS'seed'
p1566
aS'seed'
p1567
aS'seed'
p1568
aS'seed'
p1569
aS'seed'
p1570
aS'seed'
p1571
aS'seed'
p1572
aS'seed'
p1573
aS'seed'
p1574
aS'seed'
p1575
aS'seed'
p1576
aS'seed'
p1577
aS'seed'
p1578
aS'seed'
p1579
aS'seed'
p1580
aS'seed'
p1581
aS'seed'
p1582
ag1565
ag1566
ag1567
ag1568
ag1569
ag1570
ag1571
ag1572
ag1573
ag1574
ag1575
ag1576
ag1577
ag1578
ag1579
ag1580
ag1581
ag1582
ag1566
ag1567
ag1568
ag1569
ag1570
ag1571
ag1572
ag1573
ag1574
ag1575
ag1576
ag1577
ag1578
ag1579
ag1580
ag1581
ag1582
ag1567
ag1568
ag1569
ag1570
ag1571
ag1572
ag1573
ag1574
ag1575
ag1576
ag1577
ag1578
ag1579
ag1580
ag1581
ag1582
ag1568
ag1569
ag1570
ag1571
ag1572
ag1573
ag1574
ag1575
ag1576
ag1577
ag1578
ag1579
ag1580
ag1581
ag1582
ag1569
ag1570
ag1571
ag1572
ag1573
ag1574
ag1575
ag1576
ag1577
ag1578
ag1579
ag1580
ag1581
ag1582
ag1570
ag1571
ag1572
ag1573
ag1574
ag1575
ag1576
ag1577
ag1578
ag1579
ag1580
ag1581
ag1582
ag1571
ag1572
ag1573
ag1574
ag1575
ag1576
ag1577
ag1578
ag1579
ag1580
ag1581
ag1582
ag1572
ag1573
ag1574
ag1575
ag1576
ag1577
ag1578
ag1579
ag1580
ag1581
ag1582
ag1573
ag1574
ag1575
ag1576
ag1577
ag1578
ag1579
ag1580
ag1581
ag1582
ag1574
ag1575
ag1576
ag1577
ag1578
ag1579
ag1580
ag1581
ag1582
ag1575
ag1576
ag1577
ag1578
ag1579
ag1580
ag1581
ag1582
ag1576
ag1577
ag1578
ag1579
ag1580
ag1581
ag1582
ag1577
ag1578
ag1579
ag1580
ag1581
ag1582
ag1578
ag1579
ag1580
ag1581
ag1582
ag1579
ag1580
ag1581
ag1582
ag1580
ag1581
ag1582
ag1581
ag1582
ag1582
aS'root'
p1583
aS'root'
p1584
aS'root'
p1585
aS'root'
p1586
aS'root'
p1587
aS'root'
p1588
aS'root'
p1589
aS'root'
p1590
aS'root'
p1591
aS'root'
p1592
aS'root'
p1593
aS'root'
p1594
aS'root'
p1595
aS'root'
p1596
aS'root'
p1597
aS'root'
p1598
aS'root'
p1599
aS'root'
p1600
aS'root'
p1601
aS'root'
p1602
aS'root'
p1603
ag1584
ag1585
ag1586
ag1587
ag1588
ag1589
ag1590
ag1591
ag1592
ag1593
ag1594
ag1595
ag1596
ag1597
ag1598
ag1599
ag1600
ag1601
ag1602
ag1603
ag1585
ag1586
ag1587
ag1588
ag1589
ag1590
ag1591
ag1592
ag1593
ag1594
ag1595
ag1596
ag1597
ag1598
ag1599
ag1600
ag1601
ag1602
ag1603
ag1586
ag1587
ag1588
ag1589
ag1590
ag1591
ag1592
ag1593
ag1594
ag1595
ag1596
ag1597
ag1598
ag1599
ag1600
ag1601
ag1602
ag1603
ag1587
ag1588
ag1589
ag1590
ag1591
ag1592
ag1593
ag1594
ag1595
ag1596
ag1597
ag1598
ag1599
ag1600
ag1601
ag1602
ag1603
ag1588
ag1589
ag1590
ag1591
ag1592
ag1593
ag1594
ag1595
ag1596
ag1597
ag1598
ag1599
ag1600
ag1601
ag1602
ag1603
ag1589
ag1590
ag1591
ag1592
ag1593
ag1594
ag1595
ag1596
ag1597
ag1598
ag1599
ag1600
ag1601
ag1602
ag1603
ag1590
ag1591
ag1592
ag1593
ag1594
ag1595
ag1596
ag1597
ag1598
ag1599
ag1600
ag1601
ag1602
ag1603
ag1591
ag1592
ag1593
ag1594
ag1595
ag1596
ag1597
ag1598
ag1599
ag1600
ag1601
ag1602
ag1603
ag1592
ag1593
ag1594
ag1595
ag1596
ag1597
ag1598
ag1599
ag1600
ag1601
ag1602
ag1603
ag1593
ag1594
ag1595
ag1596
ag1597
ag1598
ag1599
ag1600
ag1601
ag1602
ag1603
ag1594
ag1595
ag1596
ag1597
ag1598
ag1599
ag1600
ag1601
ag1602
ag1603
ag1595
ag1596
ag1597
ag1598
ag1599
ag1600
ag1601
ag1602
ag1603
ag1596
ag1597
ag1598
ag1599
ag1600
ag1601
ag1602
ag1603
ag1597
ag1598
ag1599
ag1600
ag1601
ag1602
ag1603
ag1598
ag1599
ag1600
ag1601
ag1602
ag1603
ag1599
ag1600
ag1601
ag1602
ag1603
ag1600
ag1601
ag1602
ag1603
ag1601
ag1602
ag1603
ag1602
ag1603
ag1603
aS'heart'
p1604
aS'heart'
p1605
aS'heart'
p1606
aS'heart'
p1607
aS'heart'
p1608
aS'heart'
p1609
aS'heart'
p1610
aS'heart'
p1611
aS'heart'
p1612
aS'heart'
p1613
aS'heart'
p1614
aS'heart'
p1615
aS'heart'
p1616
aS'heart'
p1617
aS'heart'
p1618
aS'heart'
p1619
aS'heart'
p1620
aS'heart'
p1621
aS'heart'
p1622
aS'heart'
p1623
aS'heart'
p1624
ag1605
ag1604
ag1607
ag1608
ag1609
ag1610
ag1611
ag1612
ag1613
ag1614
ag1615
ag1616
ag1617
ag1618
ag1619
ag1620
ag1621
ag1622
ag1623
ag1624
ag1605
ag1607
ag1608
ag1609
ag1610
ag1611
ag1612
ag1613
ag1614
ag1615
ag1616
ag1617
ag1618
ag1619
ag1620
ag1621
ag1622
ag1623
ag1624
ag1607
ag1608
ag1609
ag1610
ag1611
ag1612
ag1613
ag1614
ag1615
ag1616
ag1617
ag1618
ag1619
ag1620
ag1621
ag1622
ag1623
ag1624
ag1608
ag1609
ag1610
ag1611
ag1612
ag1613
ag1614
ag1615
ag1616
ag1617
ag1618
ag1619
ag1620
ag1621
ag1622
ag1623
ag1624
ag1609
ag1610
ag1611
ag1612
ag1613
ag1614
ag1615
ag1616
ag1617
ag1618
ag1619
ag1620
ag1621
ag1622
ag1623
ag1624
ag1610
ag1611
ag1612
ag1613
ag1614
ag1615
ag1616
ag1617
ag1618
ag1619
ag1620
ag1621
ag1622
ag1623
ag1624
ag1611
ag1612
ag1613
ag1614
ag1615
ag1616
ag1617
ag1618
ag1619
ag1620
ag1621
ag1622
ag1623
ag1624
ag1612
ag1613
ag1614
ag1615
ag1616
ag1617
ag1618
ag1619
ag1620
ag1621
ag1622
ag1623
ag1624
ag1613
ag1614
ag1615
ag1616
ag1617
ag1618
ag1619
ag1620
ag1621
ag1622
ag1623
ag1624
ag1614
ag1615
ag1616
ag1617
ag1618
ag1619
ag1620
ag1621
ag1622
ag1623
ag1624
ag1615
ag1616
ag1617
ag1618
ag1619
ag1620
ag1621
ag1622
ag1623
ag1624
ag1616
ag1617
ag1618
ag1619
ag1620
ag1621
ag1622
ag1623
ag1624
ag1617
ag1618
ag1619
ag1620
ag1621
ag1622
ag1623
ag1624
ag1618
ag1619
ag1620
ag1621
ag1622
ag1623
ag1624
ag1619
ag1620
ag1621
ag1622
ag1623
ag1624
ag1620
ag1621
ag1622
ag1623
ag1624
ag1621
ag1622
ag1623
ag1624
ag1622
ag1623
ag1624
ag1623
ag1624
ag1624
aS'give'
p1625
aS'give'
p1626
aS'give'
p1627
ag1626
ag1626
ag1626
aS'give'
p1628
ag1626
aS'give'
p1629
aS'give'
p1630
aS'give'
p1631
aS'give'
p1632
aS'give'
p1633
ag1626
ag1626
ag1626
aS'give'
p1634
ag1626
aS'give'
p1635
ag1626
aS'give'
p1636
ag1625
ag1627
ag1625
ag1625
ag1625
ag1628
ag1625
ag1629
ag1630
ag1631
ag1632
ag1633
ag1625
ag1625
ag1625
ag1634
ag1625
ag1635
ag1625
ag1636
ag1627
ag1182
ag1193
aS'give'
p1637
ag1628
ag1191
ag1629
ag1630
ag1631
ag1632
ag1633
aS'give'
p1638
ag1192
aS'give'
p1639
ag1634
ag1180
ag1635
ag1179
ag1636
ag1627
ag1627
ag1627
ag1628
ag1627
ag1629
ag1630
ag1631
ag1632
ag1633
ag1627
ag1627
ag1627
ag1634
ag1627
ag1635
ag1627
ag1636
ag1193
ag1637
ag1628
ag1191
ag1629
ag1630
ag1631
ag1632
ag1633
ag1638
ag1192
ag1639
ag1634
ag1180
ag1635
ag1182
ag1636
ag1637
ag1628
ag1191
ag1629
ag1630
ag1631
ag1632
ag1633
ag1638
ag1192
ag1639
ag1634
ag1180
ag1635
ag1193
ag1636
ag1628
aS'give'
p1640
ag1629
ag1630
ag1631
ag1632
ag1633
aS'water'
p1641
aS'give'
p1642
ag972
ag1634
aS'give'
p1643
ag1635
ag1637
ag1636
ag1628
ag1629
ag1630
ag1631
ag1632
ag1633
ag1628
ag1628
ag1628
ag1634
ag1628
ag1635
ag1628
ag1636
ag1629
ag1630
ag1631
ag1632
ag1633
ag1638
ag1192
ag1639
ag1634
ag1180
ag1635
ag1191
ag1636
ag1630
ag1631
ag1632
ag1633
ag1629
ag1629
ag1629
ag1634
ag1629
ag1635
ag1629
ag1636
ag1631
ag1632
ag1633
ag1630
ag1630
ag1630
ag1634
ag1630
ag1635
ag1630
ag1636
ag1632
ag1633
ag1631
ag1631
ag1631
ag1634
ag1631
ag1635
ag1631
ag1636
ag1633
ag1632
ag1632
ag1632
ag1634
ag1632
ag1635
ag1632
ag1636
ag1633
ag1633
ag1633
ag1634
ag1633
ag1635
ag1633
ag1636
ag1642
ag972
ag1634
ag1643
ag1635
ag1638
ag1636
ag1639
ag1634
ag1180
ag1635
ag1192
ag1636
ag1634
ag1643
ag1635
ag1639
ag1636
ag1634
ag1635
ag1634
ag1636
ag1635
ag1180
ag1636
ag1635
ag1636
ag1636
aS'say'
p1644
aS'say'
p1645
aS'say'
p1646
aS'say'
p1647
aS'say'
p1648
aS'say'
p1649
aS'say'
p1650
aS'say'
p1651
aS'say'
p1652
aS'say'
p1653
aS'say'
p1654
aS'say'
p1655
aS'say'
p1656
aS'say'
p1657
aS'say'
p1658
aS'say'
p1659
aS'say'
p1660
aS'say'
p1661
aS'say'
p1662
aS'say'
p1663
aS'say'
p1664
ag1645
ag1646
ag1647
ag1648
ag1649
ag1650
ag1651
ag1652
ag1653
ag1654
ag1655
ag1656
ag1657
ag1658
ag1659
ag1660
ag1661
ag1662
ag1663
ag1664
ag1646
ag1647
ag1648
ag1649
ag1650
ag1651
ag1652
ag1653
ag1654
ag1655
ag1656
ag1657
ag1658
ag1659
ag1660
ag1661
ag1662
ag1663
ag1664
ag1647
ag1648
ag1649
ag1650
ag1651
ag1652
ag1653
ag1654
ag1655
ag1656
ag1657
ag1658
ag1659
ag1660
ag1661
ag1662
ag1663
ag1664
ag1648
ag1649
ag1650
ag1651
ag1652
ag1653
ag1654
ag1655
ag1656
ag1657
ag1658
ag1659
ag1660
ag1661
ag1662
ag1663
ag1664
ag1649
ag1650
ag1651
ag1652
ag1653
ag1654
ag1655
ag1656
ag1657
ag1658
ag1659
ag1660
ag1661
ag1662
ag1663
ag1664
ag1650
ag1651
ag1652
ag1653
ag1654
ag1655
ag1656
ag1657
ag1658
ag1659
ag1660
ag1661
ag1662
ag1663
ag1664
ag1651
ag1652
ag1653
ag1654
ag1655
ag1656
ag1657
ag1658
ag1659
ag1660
ag1661
ag1662
ag1663
ag1664
ag1652
ag1653
ag1654
ag1655
ag1656
ag1657
ag1658
ag1659
ag1660
ag1661
ag1662
ag1663
ag1664
ag1653
ag1654
ag1655
ag1656
ag1657
ag1658
ag1659
ag1660
ag1661
ag1662
ag1663
ag1664
ag1654
ag1655
ag1656
ag1657
ag1658
ag1659
ag1660
ag1661
ag1662
ag1663
ag1664
ag1655
ag1656
ag1657
ag1658
ag1659
ag1660
ag1661
ag1662
ag1663
ag1664
ag1656
ag1657
ag1658
ag1659
ag1660
ag1661
ag1662
ag1663
ag1664
ag1657
ag1658
ag1659
ag1660
ag1661
ag1662
ag1663
ag1664
ag1658
ag1659
ag1660
ag1661
ag1662
ag1663
ag1664
ag1659
ag1660
ag1661
ag1662
ag1663
ag1664
ag1660
ag1661
ag1662
ag1663
ag1664
ag1661
ag1662
ag1663
ag1664
ag1662
ag1663
ag1664
ag1663
ag1664
ag1664
aS'woman'
p1665
aS'woman'
p1666
aS'woman'
p1667
aS'woman'
p1668
aS'woman'
p1669
aS'woman'
p1670
aS'woman'
p1671
aS'woman'
p1672
aS'woman'
p1673
aS'woman'
p1674
aS'woman'
p1675
aS'woman'
p1676
aS'woman'
p1677
aS'woman'
p1678
aS'woman'
p1679
aS'woman'
p1680
aS'woman'
p1681
aS'woman'
p1682
aS'woman'
p1683
aS'woman'
p1684
aS'woman'
p1685
aS'woman'
p1686
aS'woman'
p1687
ag1666
ag1667
ag1668
ag1669
ag1670
ag1665
ag1672
ag1673
ag1674
ag1675
ag1676
ag1677
ag1678
ag1679
ag1680
ag1681
ag1682
ag1683
ag1684
ag1685
ag1686
ag1687
ag1667
ag1668
ag1669
ag1670
ag1666
ag1672
ag1673
ag1674
ag1675
ag1676
ag1677
ag1678
ag1679
ag1680
ag1681
ag1682
ag1683
ag1684
ag1685
ag1686
ag1687
ag1668
ag1669
ag1670
ag1667
ag1672
ag1673
ag1674
ag1675
ag1676
ag1677
ag1678
ag1679
ag1680
ag1681
ag1682
ag1683
ag1684
ag1685
ag1686
ag1687
ag1669
ag1670
ag1668
ag1672
ag1673
ag1674
ag1675
ag1676
ag1677
ag1678
ag1679
ag1680
ag1681
ag1682
ag1683
ag1684
ag1685
ag1686
ag1687
ag1670
ag1669
ag1672
ag1673
ag1674
ag1675
ag1676
ag1677
ag1678
ag1679
ag1680
ag1681
ag1682
ag1683
ag1684
ag1685
ag1686
ag1687
ag1670
ag1672
ag1673
ag1674
ag1675
ag1676
ag1677
ag1678
ag1679
ag1680
ag1681
ag1682
ag1683
ag1684
ag1685
ag1686
ag1687
ag1672
ag1673
ag1674
ag1675
ag1676
ag1677
ag1678
ag1679
ag1680
ag1681
ag1682
ag1683
ag1684
ag1685
ag1686
ag1687
ag1673
ag1674
ag1675
ag1676
ag1677
ag1678
ag1679
ag1680
ag1681
ag1682
ag1683
ag1684
ag1685
ag1686
ag1687
ag1674
ag1675
ag1676
ag1677
ag1678
ag1679
ag1680
ag1681
ag1682
ag1683
ag1684
ag1685
ag1686
ag1687
ag1675
ag1676
ag1677
ag1678
ag1679
ag1680
ag1681
ag1682
ag1683
ag1684
ag1685
ag1686
ag1687
ag1676
ag1677
ag1678
ag1679
ag1680
ag1681
ag1682
ag1683
ag1684
ag1685
ag1686
ag1687
ag1677
ag1678
ag1679
ag1680
ag1681
ag1682
ag1683
ag1684
ag1685
ag1686
ag1687
ag1678
ag1679
ag1680
ag1681
ag1682
ag1683
ag1684
ag1685
ag1686
ag1687
ag1679
ag1680
ag1681
ag1682
ag1683
ag1684
ag1685
ag1686
ag1687
ag1680
ag1681
ag1682
ag1683
ag1684
ag1685
ag1686
ag1687
ag1681
ag1682
ag1683
ag1684
ag1685
ag1686
ag1687
ag1682
ag1683
ag1684
ag1685
ag1686
ag1687
ag1683
ag1684
ag1685
ag1686
ag1687
ag1684
ag1685
ag1686
ag1687
ag1685
ag1686
ag1687
ag1686
ag1687
ag1687
aS'lie'
p1688
aS'lie'
p1689
aS'lie'
p1690
aS'lie'
p1691
aS'lie'
p1692
aS'lie'
p1693
aS'lie'
p1694
aS'lie'
p1695
aS'lie'
p1696
aS'lie'
p1697
aS'lie'
p1698
aS'lie'
p1699
aS'lie'
p1700
aS'lie'
p1701
aS'lie'
p1702
aS'lie'
p1703
aS'lie'
p1704
aS'lie'
p1705
aS'lie'
p1706
aS'lie'
p1707
aS'lie'
p1708
ag1689
ag1690
ag1691
ag1692
ag1693
ag1694
ag1695
ag1696
ag1697
ag1698
ag1699
ag1700
ag1701
ag1702
ag1688
ag1704
ag1705
ag1706
ag1707
ag1708
ag1690
ag1691
ag1692
ag1693
ag1694
ag1695
ag1696
ag1697
ag1698
ag1699
ag1700
ag1701
ag1702
ag1689
ag1704
ag1705
ag1706
ag1707
ag1708
ag1691
ag1692
ag1693
ag1694
ag1695
ag1696
ag1697
ag1698
ag1699
ag1700
ag1701
ag1702
ag1690
ag1704
ag1705
ag1706
ag1707
ag1708
ag1692
ag1693
ag1694
ag1695
ag1696
ag1697
ag1698
ag1699
ag1700
ag1701
ag1702
ag1691
ag1704
ag1705
ag1706
ag1707
ag1708
ag1693
ag1694
ag1695
ag1696
ag1697
ag1698
ag1699
ag1700
ag1701
ag1702
ag1692
ag1704
ag1705
ag1706
ag1707
ag1708
ag1694
ag1695
ag1696
ag1697
ag1698
ag1699
ag1700
ag1701
ag1702
ag1693
ag1704
ag1705
ag1706
ag1707
ag1708
ag1695
ag1696
ag1697
ag1698
ag1699
ag1700
ag1701
ag1702
ag1694
ag1704
ag1705
ag1706
ag1707
ag1708
ag1696
ag1697
ag1698
ag1699
ag1700
ag1701
ag1702
ag1695
ag1704
ag1705
ag1706
ag1707
ag1708
ag1697
ag1698
ag1699
ag1700
ag1701
ag1702
ag1696
ag1704
ag1705
ag1706
ag1707
ag1708
ag1698
ag1699
ag1700
ag1701
ag1702
ag1697
ag1704
ag1705
ag1706
ag1707
ag1708
ag1699
ag1700
ag1701
ag1702
ag1698
ag1704
ag1705
ag1706
ag1707
ag1708
ag1700
ag1701
ag1702
ag1699
ag1704
ag1705
ag1706
ag1707
ag1708
ag1701
ag1702
ag1700
ag1704
ag1705
ag1706
ag1707
ag1708
ag1702
ag1701
ag1704
ag1705
ag1706
ag1707
ag1708
ag1702
ag1704
ag1705
ag1706
ag1707
ag1708
ag1704
ag1705
ag1706
ag1707
ag1708
ag1705
ag1706
ag1707
ag1708
ag1706
ag1707
ag1708
ag1707
ag1708
ag1708
aS'sit'
p1709
aS'sit'
p1710
aS'sit'
p1711
aS'sit'
p1712
aS'sit'
p1713
aS'sit'
p1714
aS'sit'
p1715
aS'sit'
p1716
aS'sit'
p1717
aS'sit'
p1718
aS'sit'
p1719
aS'sit'
p1720
aS'sit'
p1721
aS'sit'
p1722
aS'sit'
p1723
aS'sit'
p1724
aS'sit'
p1725
aS'sit'
p1726
aS'sit'
p1727
aS'sit'
p1728
aS'sit'
p1729
aS'sit'
p1730
ag1710
ag1711
ag1712
ag1713
ag1714
ag1715
ag1716
ag1717
ag1718
ag1719
ag1720
ag1721
ag1722
ag1723
ag1724
ag1725
ag1726
ag1727
ag1728
ag1729
ag1730
ag1711
ag1712
ag1713
ag1714
ag1715
ag1716
ag1717
ag1718
ag1719
ag1720
ag1721
ag1722
ag1723
ag1724
ag1725
ag1726
ag1727
ag1728
ag1729
ag1730
ag1712
ag1713
ag1714
ag1715
ag1716
ag1717
ag1718
ag1719
ag1720
ag1721
ag1722
ag1723
ag1724
ag1725
ag1726
ag1727
ag1728
ag1729
ag1730
ag1713
ag1714
ag1715
ag1716
ag1717
ag1718
ag1719
ag1720
ag1721
ag1722
ag1723
ag1724
ag1725
ag1726
ag1727
ag1728
ag1729
ag1730
ag1714
ag1715
ag1716
ag1717
ag1718
ag1719
ag1720
ag1721
ag1722
ag1723
ag1724
ag1725
ag1726
ag1727
ag1728
ag1729
ag1730
ag1715
ag1716
ag1717
ag1718
ag1719
ag1720
ag1721
ag1722
ag1723
ag1724
ag1725
ag1726
ag1727
ag1728
ag1729
ag1730
ag1716
ag1717
ag1718
ag1719
ag1720
ag1721
ag1722
ag1723
ag1724
ag1725
ag1726
ag1727
ag1728
ag1729
ag1730
ag1717
ag1718
ag1719
ag1720
ag1721
ag1722
ag1723
ag1724
ag1725
ag1726
ag1727
ag1728
ag1729
ag1730
ag1718
ag1719
ag1720
ag1721
ag1722
ag1723
ag1724
ag1725
ag1726
ag1727
ag1728
ag1729
ag1730
ag1719
ag1720
ag1721
ag1722
ag1723
ag1724
ag1725
ag1726
ag1727
ag1728
ag1729
ag1730
ag1720
ag1721
ag1722
ag1723
ag1724
ag1725
ag1726
ag1727
ag1728
ag1729
ag1730
ag1721
ag1722
ag1723
ag1724
ag1725
ag1726
ag1727
ag1728
ag1729
ag1730
ag1722
ag1723
ag1724
ag1725
ag1726
ag1727
ag1728
ag1729
ag1730
ag1723
ag1724
ag1725
ag1726
ag1727
ag1728
ag1729
ag1730
ag1724
ag1725
ag1726
ag1727
ag1728
ag1729
ag1730
ag1725
ag1726
ag1727
ag1728
ag1729
ag1730
ag1726
ag1727
ag1728
ag1729
ag1730
ag1727
ag1728
ag1729
ag1730
ag1728
ag1729
ag1730
ag1729
ag1730
ag1730
aS'who'
p1731
aS'who'
p1732
aS'who'
p1733
aS'who'
p1734
aS'who'
p1735
ag1734
aS'who'
p1736
aS'who'
p1737
aS'who'
p1738
aS'who'
p1739
aS'who'
p1740
aS'who'
p1741
aS'who'
p1742
aS'who'
p1743
ag1734
aS'who'
p1744
aS'who'
p1745
aS'who'
p1746
aS'who'
p1747
aS'who'
p1748
aS'who'
p1749
ag1732
ag1733
ag1731
ag1735
ag1731
ag1736
ag1737
ag1738
ag1739
ag1740
ag1741
ag1742
ag1743
ag1731
ag1744
ag1745
ag1746
ag1747
ag1748
ag1749
ag1733
ag1732
ag1735
ag1732
ag1736
ag1737
ag1738
ag1739
ag1740
ag1741
ag1742
ag1743
ag1732
ag1744
ag1745
ag1746
ag1747
ag1748
ag1749
ag1733
ag1735
ag1733
ag1736
ag1737
ag1738
ag1739
ag1740
ag1741
ag1742
ag1743
ag1733
ag1744
ag1745
ag1746
ag1747
ag1748
ag1749
ag1735
aS'who'
p1750
ag1736
ag1737
ag1738
ag1739
ag1740
ag1741
ag1742
ag1743
aS'who'
p1751
ag1744
ag1745
ag1746
ag1747
ag1748
ag1749
ag1735
ag1736
ag1737
ag1738
ag1739
ag1740
ag1741
ag1742
ag1743
ag1735
ag1744
ag1745
ag1746
ag1747
ag1748
ag1749
ag1736
ag1737
ag1738
ag1739
ag1740
ag1741
ag1742
ag1743
aS'what'
p1752
ag1744
ag1745
ag1746
ag1747
ag1748
ag1749
ag1737
ag1738
ag1739
ag1740
ag1741
ag1742
ag1743
ag1736
ag1744
ag1745
ag1746
ag1747
ag1748
ag1749
ag1738
ag1739
ag1740
ag1741
ag1742
ag1743
ag1737
ag1744
ag1745
ag1746
ag1747
ag1748
ag1749
ag1739
ag1740
ag1741
ag1742
ag1743
ag1738
ag1744
ag1745
ag1746
ag1747
ag1748
ag1749
ag1740
ag1741
ag1742
ag1743
ag1739
ag1744
ag1745
ag1746
ag1747
ag1748
ag1749
ag1741
ag1742
ag1743
ag1740
ag1744
ag1745
ag1746
ag1747
ag1748
ag1749
ag1742
ag1743
ag1741
ag1744
ag1745
ag1746
ag1747
ag1748
ag1749
ag1743
ag1742
ag1744
ag1745
ag1746
ag1747
ag1748
ag1749
ag1743
ag1744
ag1745
ag1746
ag1747
ag1748
ag1749
ag1744
ag1745
ag1746
ag1747
ag1748
ag1749
ag1745
ag1746
ag1747
ag1748
ag1749
ag1746
ag1747
ag1748
ag1749
ag1747
ag1748
ag1749
ag1748
ag1749
ag1749
aS'hot'
p1753
aS'hot'
p1754
aS'hot'
p1755
aS'hot'
p1756
aS'hot'
p1757
aS'hot'
p1758
ag1756
aS'hot'
p1759
aS'hot'
p1760
aS'hot'
p1761
ag1756
ag1756
aS'hot'
p1762
aS'hot'
p1763
aS'hot'
p1764
aS'hot'
p1765
ag1756
aS'hot'
p1766
aS'hot'
p1767
aS'hot'
p1768
aS'hot'
p1769
aS'hot'
p1770
ag1754
ag1755
ag1753
ag1757
ag1758
ag1753
ag1759
ag1760
ag1761
ag1753
ag1753
ag1762
ag1763
ag1764
ag1765
ag1753
ag1766
ag1767
ag1768
ag1769
ag1770
ag1755
ag1754
ag1757
ag1758
ag1754
ag1759
ag1760
ag1761
ag1754
ag1754
ag1762
ag1763
ag1764
ag1765
ag1754
ag1766
ag1767
ag1768
ag1769
ag1770
ag1755
ag1757
ag1758
ag1755
ag1759
ag1760
ag1761
ag1755
ag1755
ag1762
ag1763
ag1764
ag1765
ag1755
ag1766
ag1767
ag1768
ag1769
ag1770
ag1757
ag1758
aS'hot'
p1771
ag1759
ag1760
ag1761
ag886
aS'hot'
p1772
ag1762
ag1763
ag1764
ag1765
aS'hot'
p1773
ag1766
ag1767
ag1768
ag1769
ag1770
ag1758
ag1757
ag1759
ag1760
ag1761
ag1757
ag1757
ag1762
ag1763
ag1764
ag1765
ag1757
ag1766
ag1767
ag1768
ag1769
ag1770
ag1758
ag1759
ag1760
ag1761
ag1758
ag1758
ag1762
ag1763
ag1764
ag1765
ag1758
ag1766
ag1767
ag1768
ag1769
ag1770
ag1759
ag1760
ag1761
ag886
ag1772
ag1762
ag1763
ag1764
ag1765
ag1773
ag1766
ag1767
ag1768
ag1769
ag1770
ag1760
ag1761
ag1759
ag1759
ag1762
ag1763
ag1764
ag1765
ag1759
ag1766
ag1767
ag1768
ag1769
ag1770
ag1761
ag1760
ag1760
ag1762
ag1763
ag1764
ag1765
ag1760
ag1766
ag1767
ag1768
ag1769
ag1770
ag1761
ag1761
ag1762
ag1763
ag1764
ag1765
ag1761
ag1766
ag1767
ag1768
ag1769
ag1770
ag1772
ag1762
ag1763
ag1764
ag1765
ag1773
ag1766
ag1767
ag1768
ag1769
ag1770
ag1762
ag1763
ag1764
ag1765
ag1412
ag1766
ag1767
ag1768
ag1769
ag1770
ag1763
ag1764
ag1765
ag1762
ag1766
ag1767
ag1768
ag1769
ag1770
ag1764
ag1765
ag1763
ag1766
ag1767
ag1768
ag1769
ag1770
ag1765
ag1764
ag1766
ag1767
ag1768
ag1769
ag1770
ag1765
ag1766
ag1767
ag1768
ag1769
ag1770
ag1766
ag1767
ag1768
ag1769
ag1770
ag1767
ag1768
ag1769
ag1770
ag1768
ag1769
ag1770
ag1769
ag1770
ag1770
aS'belly'
p1774
aS'belly'
p1775
aS'belly'
p1776
aS'belly'
p1777
aS'belly'
p1778
aS'belly'
p1779
aS'belly'
p1780
aS'belly'
p1781
aS'belly'
p1782
aS'belly'
p1783
aS'belly'
p1784
aS'belly'
p1785
aS'belly'
p1786
aS'belly'
p1787
aS'belly'
p1788
aS'belly'
p1789
aS'belly'
p1790
aS'belly'
p1791
aS'belly'
p1792
aS'belly'
p1793
aS'belly'
p1794
aS'belly'
p1795
ag1775
ag1776
ag1777
ag1774
ag1779
ag1780
ag1781
ag1782
ag1783
ag1784
ag1785
ag1786
ag1787
ag1788
ag1789
ag1790
ag1791
ag1792
ag1793
ag1794
ag1795
ag1776
ag1777
ag1775
ag1779
ag1780
ag1781
ag1782
ag1783
ag1784
ag1785
ag1786
ag1787
ag1788
ag1789
ag1790
ag1791
ag1792
ag1793
ag1794
ag1795
ag1777
ag1776
ag1779
ag1780
ag1781
ag1782
ag1783
ag1784
ag1785
ag1786
ag1787
ag1788
ag1789
ag1790
ag1791
ag1792
ag1793
ag1794
ag1795
ag1777
ag1779
ag1780
ag1781
ag1782
ag1783
ag1784
ag1785
ag1786
ag1787
ag1788
ag1789
ag1790
ag1791
ag1792
ag1793
ag1794
ag1795
ag1779
ag1780
ag1781
ag1782
ag1783
ag1784
ag1785
ag1786
ag1787
ag1788
ag1789
ag1790
ag1791
ag1792
ag1793
ag1794
ag1795
ag1780
ag1781
ag1782
ag1783
ag1784
ag1785
ag1786
ag1787
ag1788
ag1789
ag1790
ag1791
ag1792
ag1793
ag1794
ag1795
ag1781
ag1782
ag1783
ag1784
ag1785
ag1786
ag1787
ag1788
ag1789
ag1790
ag1791
ag1792
ag1793
ag1794
ag1795
ag1782
ag1783
ag1784
ag1785
ag1786
ag1787
ag1788
ag1789
ag1790
ag1791
ag1792
ag1793
ag1794
ag1795
ag1783
ag1784
ag1785
ag1786
ag1787
ag1788
ag1789
ag1790
ag1791
ag1792
ag1793
ag1794
ag1795
ag1784
ag1785
ag1786
ag1787
ag1788
ag1789
ag1790
ag1791
ag1792
ag1793
ag1794
ag1795
ag1785
ag1786
ag1787
ag1788
ag1789
ag1790
ag1791
ag1792
ag1793
ag1794
ag1795
ag1786
ag1787
ag1788
ag1789
ag1790
ag1791
ag1792
ag1793
ag1794
ag1795
ag1787
ag1788
ag1789
ag1790
ag1791
ag1792
ag1793
ag1794
ag1795
ag1788
ag1789
ag1790
ag1791
ag1792
ag1793
ag1794
ag1795
ag1789
ag1790
ag1791
ag1792
ag1793
ag1794
ag1795
ag1790
ag1791
ag1792
ag1793
ag1794
ag1795
ag1791
ag1792
ag1793
ag1794
ag1795
ag1792
ag1793
ag1794
ag1795
ag1793
ag1794
ag1795
ag1794
ag1795
ag1795
aS'you'
p1796
aS'you'
p1797
aS'you'
p1798
aS'you'
p1799
aS'you'
p1800
aS'you'
p1801
aS'you'
p1802
aS'you'
p1803
aS'you'
p1804
aS'you'
p1805
aS'you'
p1806
aS'you'
p1807
aS'you'
p1808
aS'you'
p1809
aS'you'
p1810
aS'you'
p1811
aS'you'
p1812
aS'you'
p1813
aS'you'
p1814
aS'you'
p1815
ag1797
ag1798
ag1799
ag1800
ag1801
ag1802
ag1803
ag1804
ag1805
ag1806
ag1807
ag1808
ag1809
ag1810
ag1811
ag1812
ag1813
ag1814
ag1815
ag1798
ag1799
ag1800
ag1801
ag1802
ag1803
ag1804
ag1805
ag1806
ag1807
ag1808
ag1809
ag1810
ag1811
ag1812
ag1813
ag1814
ag1815
ag1799
ag1800
ag1801
ag1802
ag1803
ag1804
ag1805
ag1806
ag1807
ag1808
ag1809
ag1810
ag1811
ag1812
ag1813
ag1814
ag1815
ag1800
ag1801
ag1802
ag1803
ag1804
ag1805
ag1806
ag1807
ag1808
ag1809
ag1810
ag1811
ag1812
ag1813
ag1814
ag1815
ag1801
ag1802
ag1803
ag1804
ag1805
ag1806
ag1807
ag1808
ag1809
ag1810
ag1811
ag1812
ag1813
ag1814
ag1815
ag1802
ag1803
ag1804
ag1805
ag1806
ag1807
ag1808
ag1809
ag1810
ag1811
ag1812
ag1813
ag1814
ag1815
ag1803
ag1804
ag1805
ag1806
ag1807
ag1808
ag1809
ag1810
ag1811
ag1812
ag1813
ag1814
ag1815
ag1804
ag1805
ag1806
ag1807
ag1808
ag1809
ag1810
ag1811
ag1812
ag1813
ag1814
ag1815
ag1805
ag1806
ag1807
ag1808
ag1809
ag1810
ag1811
ag1812
ag1813
ag1814
ag1815
ag1806
ag1807
ag1808
ag1809
ag1810
ag1811
ag1812
ag1813
ag1814
ag1815
ag1807
ag1808
ag1809
ag1810
ag1811
ag1812
ag1813
ag1814
ag1815
ag1808
ag1809
ag1810
ag1811
ag1812
ag1813
ag1814
ag1815
ag1809
ag1810
ag1811
ag1812
ag1813
ag1814
ag1815
ag1810
ag1811
ag1812
ag1813
ag1814
ag1815
ag1811
ag1812
ag1813
ag1814
ag1815
ag1812
ag1813
ag1814
ag1815
ag1813
ag1814
ag1815
ag1814
ag1815
ag1815
aS'star'
p1816
aS'star'
p1817
aS'star'
p1818
aS'star'
p1819
aS'star'
p1820
aS'star'
p1821
aS'star'
p1822
aS'star'
p1823
aS'star'
p1824
aS'star'
p1825
aS'star'
p1826
aS'star'
p1827
aS'star'
p1828
aS'star'
p1829
aS'star'
p1830
aS'star'
p1831
aS'star'
p1832
aS'star'
p1833
aS'star'
p1834
aS'star'
p1835
aS'star'
p1836
ag1827
ag1817
ag1818
ag1819
ag1820
ag1821
ag1822
ag1823
ag1824
ag1825
ag1826
ag1816
ag1828
ag1829
ag1830
ag1831
ag1832
ag1833
ag1834
ag1835
ag1836
ag1816
ag1818
ag1819
ag1820
ag1821
ag1822
ag1823
ag1824
ag1825
ag1826
ag1817
ag1828
ag1829
ag1830
ag1831
ag1832
ag1833
ag1834
ag1835
ag1836
ag1817
ag1819
ag1820
ag1821
ag1822
ag1823
ag1824
ag1825
ag1826
ag1818
ag1828
ag1829
ag1830
ag1831
ag1832
ag1833
ag1834
ag1835
ag1836
ag1818
ag1820
ag1821
ag1822
ag1823
ag1824
ag1825
ag1826
ag1819
ag1828
ag1829
ag1830
ag1831
ag1832
ag1833
ag1834
ag1835
ag1836
ag1819
ag1821
ag1822
ag1823
ag1824
ag1825
ag1826
ag1820
ag1828
ag1829
ag1830
ag1831
ag1832
ag1833
ag1834
ag1835
ag1836
ag1820
ag1822
ag1823
ag1824
ag1825
ag1826
ag1821
ag1828
ag1829
ag1830
ag1831
ag1832
ag1833
ag1834
ag1835
ag1836
ag1821
ag1823
ag1824
ag1825
ag1826
ag1822
ag1828
ag1829
ag1830
ag1831
ag1832
ag1833
ag1834
ag1835
ag1836
ag1822
ag1824
ag1825
ag1826
ag1823
ag1828
ag1829
ag1830
ag1831
ag1832
ag1833
ag1834
ag1835
ag1836
ag1823
ag1825
ag1826
ag1824
ag1828
ag1829
ag1830
ag1831
ag1832
ag1833
ag1834
ag1835
ag1836
ag1824
ag1826
ag1825
ag1828
ag1829
ag1830
ag1831
ag1832
ag1833
ag1834
ag1835
ag1836
ag1825
ag1826
ag1828
ag1829
ag1830
ag1831
ag1832
ag1833
ag1834
ag1835
ag1836
ag1826
ag1828
ag1829
ag1830
ag1831
ag1832
ag1833
ag1834
ag1835
ag1836
aS'star'
p1837
ag1829
ag1830
ag1831
ag1832
ag1833
ag1834
ag1835
ag1836
ag1828
ag1830
ag1831
ag1832
ag1833
ag1834
ag1835
ag1836
ag1829
ag1831
ag1832
ag1833
ag1834
ag1835
ag1836
ag1830
ag1832
ag1833
ag1834
ag1835
ag1836
ag1831
ag1833
ag1834
ag1835
ag1836
ag1832
ag1834
ag1835
ag1836
ag1833
ag1835
ag1836
ag1834
ag1836
ag1835
ag1836
aS'mountain'
p1838
aS'mountain'
p1839
aS'mountain'
p1840
aS'mountain'
p1841
aS'mountain'
p1842
aS'mountain'
p1843
aS'mountain'
p1844
aS'mountain'
p1845
aS'mountain'
p1846
aS'mountain'
p1847
aS'mountain'
p1848
aS'mountain'
p1849
aS'mountain'
p1850
aS'mountain'
p1851
aS'mountain'
p1852
aS'mountain'
p1853
aS'mountain'
p1854
aS'mountain'
p1855
aS'mountain'
p1856
aS'mountain'
p1857
ag1839
ag1840
ag1841
ag1842
ag1843
ag1844
ag1845
ag1846
ag1847
ag1848
ag1849
ag1850
ag1851
ag1852
ag1853
ag1854
ag1855
ag1856
ag1857
ag1840
ag1841
ag1842
ag1843
ag1844
ag1845
ag1846
ag1847
ag1848
ag1849
ag1850
ag1851
ag1852
ag1853
ag1854
ag1855
ag1856
ag1857
ag1841
ag1842
ag1843
ag1844
ag1845
ag1846
ag1847
ag1848
ag1849
ag1850
ag1851
ag1852
ag1853
ag1854
ag1855
ag1856
ag1857
ag1842
ag1843
ag1844
ag1845
ag1846
ag1847
ag1848
ag1849
ag1850
ag1851
ag1852
ag1853
ag1854
ag1855
ag1856
ag1857
ag1843
ag1844
ag1845
ag1846
ag1847
ag1848
ag1849
ag1850
ag1851
ag1852
ag1853
ag1854
ag1855
ag1856
ag1857
ag1844
ag1845
ag1846
ag1847
ag1848
ag1849
ag1850
ag1851
ag1852
ag1853
ag1854
ag1855
ag1856
ag1857
ag1845
ag1846
ag1847
ag1848
ag1849
ag1850
ag1851
ag1852
ag1853
ag1854
ag1855
ag1856
ag1857
ag1846
ag1847
ag1848
ag1849
ag1850
ag1851
ag1852
ag1853
ag1854
ag1855
ag1856
ag1857
ag1847
ag1848
ag1849
ag1850
ag1851
ag1852
ag1853
ag1854
ag1855
ag1856
ag1857
ag1848
ag1849
ag1850
ag1851
ag1852
ag1853
ag1854
ag1855
ag1856
ag1857
ag1849
ag1850
ag1851
ag1852
ag1853
ag1854
ag1855
ag1856
ag1857
ag1850
ag1851
ag1852
ag1853
ag1854
ag1855
ag1856
ag1857
ag1851
ag1852
ag1853
ag1854
ag1855
ag1856
ag1857
ag1852
ag1853
ag1854
ag1855
ag1856
ag1857
ag1853
ag1854
ag1855
ag1856
ag1857
ag1854
ag1855
ag1856
ag1857
ag1855
ag1856
ag1857
ag1856
ag1857
ag1857
aS'I'
p1858
ag1858
ag1858
ag1858
ag1858
ag1858
ag1858
ag1858
ag1858
ag1858
ag1858
ag1858
ag1858
ag1858
ag1858
ag1858
ag1858
ag1858
ag1858
ag1858
ag1858
ag1858
ag1858
ag1858
ag1858
ag1858
ag1858
ag1858
ag1858
ag1858
ag1858
ag1858
ag1858
ag1858
ag1858
ag1858
ag1858
ag1858
ag1858
ag1858
ag1858
ag1858
ag1858
ag1858
ag1858
ag1858
ag1858
ag1858
ag1858
ag1858
ag1858
ag1858
ag1858
ag1858
ag1858
ag1858
ag1858
ag1858
ag1858
ag1858
ag1858
ag1858
ag1858
ag1858
ag1858
ag1858
ag1858
ag1858
ag1858
ag1858
ag1858
ag1858
ag1858
ag1858
ag1858
ag1858
ag1858
ag1858
ag1858
ag1858
ag1858
ag1858
ag1858
ag1858
ag1858
ag1858
ag1858
ag1858
ag1858
ag1858
ag1858
ag1858
ag1858
ag1858
ag1858
ag1858
ag1858
ag1858
ag1858
ag1858
ag1858
ag1858
ag1858
ag1858
ag1858
ag1858
ag1858
ag1858
ag1858
ag1858
ag1858
ag1858
ag1858
ag1858
ag1858
ag1858
ag1858
ag1858
ag1858
ag1858
ag1858
ag1858
ag1858
ag1858
ag1858
ag1858
ag1858
ag1858
ag1858
ag1858
ag1858
ag1858
ag1858
ag1858
ag1858
ag1858
ag1858
ag1858
ag1858
ag1858
ag1858
ag1858
ag1858
ag1858
ag1858
ag1858
ag1858
ag1858
ag1858
ag1858
ag1858
ag1858
ag1858
ag1858
ag1858
ag1858
ag1858
ag1858
ag1858
ag1858
ag1858
ag1858
ag1858
ag1858
ag1858
ag1858
ag1858
ag1858
ag1858
ag1858
ag1858
ag1858
ag1858
ag1858
ag1858
ag1858
ag1858
ag1858
ag1858
ag1858
ag1858
ag1858
ag1858
ag1858
ag1858
ag1858
ag1858
ag1858
ag1858
ag1858
aS'drink'
p1859
aS'drink'
p1860
aS'drink'
p1861
aS'drink'
p1862
aS'drink'
p1863
aS'drink'
p1864
aS'drink'
p1865
aS'drink'
p1866
aS'drink'
p1867
aS'drink'
p1868
aS'drink'
p1869
aS'drink'
p1870
aS'drink'
p1871
ag1867
ag1867
aS'drink'
p1872
ag1867
ag1867
ag1867
aS'drink'
p1873
aS'drink'
p1874
ag1867
ag1860
ag1861
ag1862
ag1863
ag1864
ag1865
ag1866
ag1859
ag1868
ag1869
ag1870
ag1871
ag1859
ag1859
ag1872
ag1859
ag1859
ag1859
ag1873
ag1874
ag1859
ag1861
ag1862
ag1863
ag1864
ag1865
ag1866
ag1860
ag1868
ag1869
ag1870
ag1871
ag1860
ag1860
ag1872
ag1860
ag1860
ag1860
ag1873
ag1874
ag1860
ag1862
ag1863
ag1864
ag1865
ag1866
ag1861
ag1868
ag1869
ag1870
ag1871
ag1861
ag1861
ag1872
ag1861
ag1861
ag1861
ag1873
ag1874
ag1861
ag1863
ag1864
ag1865
ag1866
ag1862
ag1868
ag1869
ag1870
ag1871
ag1862
ag1862
ag1872
ag1862
ag1862
ag1862
ag1873
ag1874
ag1862
ag1864
ag1865
ag1866
ag1863
ag1868
ag1869
ag1870
ag1871
ag1863
ag1863
ag1872
ag1863
ag1863
ag1863
ag1873
ag1874
ag1863
ag1865
ag1866
ag1864
ag1868
ag1869
ag1870
ag1871
ag1864
ag1864
ag1872
ag1864
ag1864
ag1864
ag1873
ag1874
ag1864
ag1866
ag1865
ag1868
ag1869
ag1870
ag1871
ag1865
ag1865
ag1872
ag1865
ag1865
ag1865
ag1873
ag1874
ag1865
ag1866
ag1868
ag1869
ag1870
ag1871
ag1866
ag1866
ag1872
ag1866
ag1866
ag1866
ag1873
ag1874
ag1866
ag1868
ag1869
ag1870
ag1871
aS'drink'
p1875
ag1129
ag1872
aS'drink'
p1876
ag1127
ag1128
ag1873
ag1874
aS'drink'
p1877
ag1869
ag1870
ag1871
ag1868
ag1868
ag1872
ag1868
ag1868
ag1868
ag1873
ag1874
ag1868
ag1870
ag1871
ag1869
ag1869
ag1872
ag1869
ag1869
ag1869
ag1873
ag1874
ag1869
ag1871
ag1870
ag1870
ag1872
ag1870
ag1870
ag1870
ag1873
ag1874
ag1870
ag1871
ag1871
ag1872
ag1871
ag1871
ag1871
ag1873
ag1874
ag1871
ag1129
ag1872
ag1876
ag1127
ag1128
ag1873
ag1874
ag1877
ag1872
ag1876
ag1127
ag1128
ag1873
ag1874
ag1877
ag1872
ag1872
ag1872
ag1873
ag1874
ag1872
ag1127
ag1128
ag1873
ag1874
ag1877
ag1128
ag1873
ag1874
ag1877
ag1873
ag1874
ag1877
ag1874
ag1873
ag1874
aS'breasts'
p1878
aS'breasts'
p1879
aS'breasts'
p1880
aS'breasts'
p1881
aS'breasts'
p1882
aS'breasts'
p1883
aS'breasts'
p1884
aS'breasts'
p1885
aS'breasts'
p1886
aS'breasts'
p1887
aS'breasts'
p1888
aS'breasts'
p1889
aS'breasts'
p1890
aS'breasts'
p1891
aS'breasts'
p1892
aS'breasts'
p1893
aS'breasts'
p1894
aS'breasts'
p1895
aS'breasts'
p1896
aS'breasts'
p1897
aS'breasts'
p1898
aS'breasts'
p1899
ag1879
ag1880
ag1881
ag1882
ag1883
ag1884
ag1885
ag1886
ag1887
ag1888
ag1889
ag1890
ag1891
ag1892
ag1893
ag1894
ag1895
ag1896
ag1897
ag1898
ag1899
ag1880
ag1881
ag1882
ag1883
ag1884
ag1885
ag1886
ag1887
ag1888
ag1889
ag1890
ag1891
ag1892
ag1893
ag1894
ag1895
ag1896
ag1897
ag1898
ag1899
ag1881
ag1882
ag1883
ag1884
ag1885
ag1886
ag1887
ag1888
ag1889
ag1890
ag1891
ag1892
ag1893
ag1894
ag1895
ag1896
ag1897
ag1898
ag1899
ag1882
ag1883
ag1884
ag1885
ag1886
ag1887
ag1888
ag1889
ag1890
ag1891
ag1892
ag1893
ag1894
ag1895
ag1896
ag1897
ag1898
ag1899
ag1883
ag1884
ag1885
ag1886
ag1887
ag1888
ag1889
ag1890
ag1891
ag1892
ag1893
ag1894
ag1895
ag1896
ag1897
ag1898
ag1899
ag1884
ag1885
ag1886
ag1887
ag1888
ag1889
ag1890
ag1891
ag1892
ag1893
ag1894
ag1895
ag1896
ag1897
ag1898
ag1899
ag1885
ag1886
ag1887
ag1888
ag1889
ag1890
ag1891
ag1892
ag1893
ag1894
ag1895
ag1896
ag1897
ag1898
ag1899
ag1886
ag1887
ag1888
ag1889
ag1890
ag1891
ag1892
ag1893
ag1894
ag1895
ag1896
ag1897
ag1898
ag1899
ag1887
ag1888
ag1889
ag1890
ag1891
ag1892
ag1893
ag1894
ag1895
ag1896
ag1897
ag1898
ag1899
ag1888
ag1889
ag1890
ag1891
ag1892
ag1893
ag1894
ag1895
ag1896
ag1897
ag1898
ag1899
ag1889
ag1890
ag1891
ag1892
ag1893
ag1894
ag1895
ag1896
ag1897
ag1898
ag1899
ag1890
ag1891
ag1892
ag1893
ag1894
ag1895
ag1896
ag1897
ag1898
ag1899
ag1891
ag1892
ag1893
ag1894
ag1895
ag1896
ag1897
ag1898
ag1899
ag1892
ag1893
ag1894
ag1895
ag1896
ag1897
ag1898
ag1899
ag1893
ag1894
ag1895
ag1896
ag1897
ag1898
ag1899
ag1894
ag1895
ag1896
ag1897
ag1898
ag1899
ag1895
ag1896
ag1897
ag1898
ag1899
ag1896
ag1897
ag1898
ag1899
ag1897
ag1898
ag1899
ag1898
ag1899
ag1899
aS'rain'
p1900
aS'rain'
p1901
aS'rain'
p1902
aS'rain'
p1903
aS'rain'
p1904
aS'rain'
p1905
ag1904
aS'rain'
p1906
aS'rain'
p1907
aS'rain'
p1908
aS'rain'
p1909
aS'rain'
p1910
ag1904
ag1904
aS'rain'
p1911
aS'rain'
p1912
aS'rain'
p1913
aS'rain'
p1914
aS'rain'
p1915
aS'rain'
p1916
aS'rain'
p1917
aS'rain'
p1918
ag1901
ag1902
ag1903
ag1900
ag1905
ag1900
ag1906
ag1907
ag1908
ag1909
ag1910
ag1900
ag1900
ag1911
ag1912
ag1913
ag1914
ag1915
ag1916
ag1917
ag1918
ag1902
ag1903
ag1901
ag1905
ag1901
ag1906
ag1907
ag1908
ag1909
ag1910
ag1901
ag1901
ag1911
ag1912
ag1913
ag1914
ag1915
ag1916
ag1917
ag1918
ag1903
ag1902
ag1905
ag1902
ag1906
ag1907
ag1908
ag1909
ag1910
ag1902
ag1902
ag1911
ag1912
ag1913
ag1914
ag1915
ag1916
ag1917
ag1918
ag1903
ag1905
ag1903
ag1906
ag1907
ag1908
ag1909
ag1910
ag1903
ag1903
ag1911
ag1912
ag1913
ag1914
ag1915
ag1916
ag1917
ag1918
ag1905
ag973
ag1906
ag1907
ag1908
ag1909
ag1910
ag969
aS'rain'
p1919
ag1911
ag1912
ag1913
ag1914
ag1915
ag1916
ag1917
ag1918
ag1905
ag1906
ag1907
ag1908
ag1909
ag1910
ag1905
ag1905
ag1911
ag1912
ag1913
ag1914
ag1915
ag1916
ag1917
ag1918
ag1906
ag1907
ag1908
ag1909
ag1910
ag969
ag1919
ag1911
ag1912
ag1913
ag1914
ag1915
ag1916
ag1917
ag1918
ag1907
ag1908
ag1909
ag1910
ag1906
ag1906
ag1911
ag1912
ag1913
ag1914
ag1915
ag1916
ag1917
ag1918
ag1908
ag1909
ag1910
ag1907
ag1907
ag1911
ag1912
ag1913
ag1914
ag1915
ag1916
ag1917
ag1918
ag1909
ag1910
ag1908
ag1908
ag1911
ag1912
ag1913
ag1914
ag1915
ag1916
ag1917
ag1918
ag1910
ag1909
ag1909
ag1911
ag1912
ag1913
ag1914
ag1915
ag1916
ag1917
ag1918
ag1910
ag1910
ag1911
ag1912
ag1913
ag1914
ag1915
ag1916
ag1917
ag1918
ag1919
ag1911
ag1912
ag1913
ag1914
ag1915
ag1916
ag1917
ag1918
ag1911
ag1912
ag1913
ag1914
ag1915
ag1916
ag1917
ag1918
ag1912
ag1913
ag1914
ag1915
ag1916
ag1917
ag1918
ag1913
ag1914
ag1915
ag1916
ag1917
ag1918
ag1914
ag1915
ag1916
ag1917
ag1918
ag1915
ag1916
ag1917
ag1918
ag1916
ag1917
ag1918
ag1917
ag1918
ag1918
aS'hand'
p1920
aS'hand'
p1921
aS'hand'
p1922
aS'hand'
p1923
aS'hand'
p1924
aS'hand'
p1925
aS'hand'
p1926
aS'hand'
p1927
aS'hand'
p1928
aS'hand'
p1929
aS'hand'
p1930
aS'hand'
p1931
aS'hand'
p1932
aS'hand'
p1933
aS'hand'
p1934
aS'hand'
p1935
aS'hand'
p1936
aS'hand'
p1937
aS'hand'
p1938
aS'hand'
p1939
aS'hand'
p1940
aS'hand'
p1941
aS'hand'
p1942
ag1921
ag1922
ag1923
ag1924
ag1925
ag1926
ag1927
ag1928
ag1929
ag1930
ag1931
ag1932
ag1933
ag1934
ag1935
ag1936
ag1937
ag1938
ag1939
ag1940
ag1941
ag1942
ag1922
ag1923
ag1924
ag1925
ag1926
ag1927
ag1928
ag1929
ag1930
ag1931
ag1932
ag1933
ag1934
ag1935
ag1936
ag1937
ag1938
ag1939
ag1940
ag1941
ag1942
ag1923
ag1924
ag1925
ag1926
ag1927
ag1928
ag1929
ag1930
ag1931
ag1932
ag1933
ag1934
ag1935
ag1936
ag1937
ag1938
ag1939
ag1940
ag1941
ag1942
ag1924
ag1925
ag1926
ag1927
ag1928
ag1929
ag1930
ag1931
ag1932
ag1933
ag1934
ag1935
ag1936
ag1937
ag1938
ag1939
ag1940
ag1941
ag1942
ag1925
ag1926
ag1927
ag1928
ag1929
ag1930
ag1931
ag1932
ag1933
ag1934
ag1935
ag1936
ag1937
ag1938
ag1939
ag1940
ag1941
ag1942
ag1926
ag1927
ag1928
ag1929
ag1930
ag1931
ag1932
ag1933
ag1934
ag1935
ag1936
ag1937
ag1938
ag1939
ag1940
ag1941
ag1942
ag1927
ag1928
ag1929
ag1930
ag1931
ag1932
ag1933
ag1934
ag1935
ag1936
ag1937
ag1938
ag1939
ag1940
ag1941
ag1942
ag1928
ag1929
ag1930
ag1931
ag1932
ag1933
ag1934
ag1935
ag1936
ag1937
ag1938
ag1939
ag1940
ag1941
ag1942
ag1929
ag1930
ag1931
ag1932
ag1933
ag1934
ag1935
ag1936
ag1937
ag1938
ag1939
ag1940
ag1941
ag1942
ag1930
ag1931
ag1932
ag1933
ag1934
ag1935
ag1936
ag1937
ag1938
ag1939
ag1940
ag1941
ag1942
ag1931
ag1932
ag1933
ag1934
ag1935
ag1936
ag1937
ag1938
ag1939
ag1940
ag1941
ag1942
ag1932
ag1933
ag1934
ag1935
ag1936
ag1937
ag1938
ag1939
ag1940
ag1941
ag1942
ag1933
ag1934
ag1935
ag1936
ag1937
ag1938
ag1939
ag1940
ag1941
ag1942
ag1934
ag1935
ag1936
ag1937
ag1938
ag1939
ag1940
ag1941
ag1942
ag1935
ag1936
ag1937
ag1938
ag1939
ag1940
ag1941
ag1942
ag1936
ag1937
ag1938
ag1939
ag1940
ag1941
ag1942
ag1937
ag1938
ag1939
ag1940
ag1941
ag1942
ag1938
ag1939
ag1940
ag1941
ag1942
ag1939
ag1940
ag1941
ag1942
ag1940
ag1941
ag1942
ag1941
ag1942
ag1942
aS'mouth'
p1943
aS'mouth'
p1944
aS'mouth'
p1945
aS'mouth'
p1946
aS'mouth'
p1947
aS'mouth'
p1948
aS'mouth'
p1949
aS'mouth'
p1950
aS'mouth'
p1951
aS'mouth'
p1952
aS'mouth'
p1953
aS'mouth'
p1954
aS'mouth'
p1955
ag1951
ag1951
aS'mouth'
p1956
aS'mouth'
p1957
aS'mouth'
p1958
aS'mouth'
p1959
aS'mouth'
p1960
aS'mouth'
p1961
aS'mouth'
p1962
aS'mouth'
p1963
ag1944
ag1945
ag1946
ag1947
ag1948
ag1949
ag1950
ag1943
ag1952
ag1953
ag1954
ag1955
ag1943
ag1943
ag1956
ag1957
ag1958
ag1959
ag1960
ag1961
ag1962
ag1963
ag1945
ag1946
ag1947
ag1948
ag1949
ag1950
ag1944
ag1952
ag1953
ag1954
ag1955
ag1944
ag1944
ag1956
ag1957
ag1958
ag1959
ag1960
ag1961
ag1962
ag1963
ag1946
ag1947
ag1948
ag1949
ag1950
ag1945
ag1952
ag1953
ag1954
ag1955
ag1945
ag1945
ag1956
ag1957
ag1958
ag1959
ag1960
ag1961
ag1962
ag1963
ag1947
ag1948
ag1949
ag1950
ag1946
ag1952
ag1953
ag1954
ag1955
ag1946
ag1946
ag1956
ag1957
ag1958
ag1959
ag1960
ag1961
ag1962
ag1963
ag1948
ag1949
ag1950
ag1947
ag1952
ag1953
ag1954
ag1955
ag1947
ag1947
ag1956
ag1957
ag1958
ag1959
ag1960
ag1961
ag1962
ag1963
ag1949
ag1950
ag1948
ag1952
ag1953
ag1954
ag1955
ag1948
ag1948
ag1956
ag1957
ag1958
ag1959
ag1960
ag1961
ag1962
ag1963
ag1950
ag1949
ag1952
ag1953
ag1954
ag1955
ag1949
ag1949
ag1956
ag1957
ag1958
ag1959
ag1960
ag1961
ag1962
ag1963
ag1950
ag1952
ag1953
ag1954
ag1955
ag1950
ag1950
ag1956
ag1957
ag1958
ag1959
ag1960
ag1961
ag1962
ag1963
ag1952
ag1953
ag1954
ag1955
aS'mouth'
p1964
ag1275
ag1956
ag1957
ag1958
ag1959
ag1960
ag1961
ag1962
ag1963
ag1953
ag1954
ag1955
ag1952
ag1952
ag1956
ag1957
ag1958
ag1959
ag1960
ag1961
ag1962
ag1963
ag1954
ag1955
ag1953
ag1953
ag1956
ag1957
ag1958
ag1959
ag1960
ag1961
ag1962
ag1963
ag1955
ag1954
ag1954
ag1956
ag1957
ag1958
ag1959
ag1960
ag1961
ag1962
ag1963
ag1955
ag1955
ag1956
ag1957
ag1958
ag1959
ag1960
ag1961
ag1962
ag1963
aS'mouth'
p1965
ag1956
ag1957
ag1958
ag1959
ag1960
ag1961
ag1962
ag1963
ag1956
ag1957
ag1958
ag1959
ag1960
ag1961
ag1962
ag1963
ag1957
ag1958
ag1959
ag1960
ag1961
ag1962
ag1963
ag1958
ag1959
ag1960
ag1961
ag1962
ag1963
ag1959
ag1960
ag1961
ag1962
ag1963
ag1960
ag1961
ag1962
ag1963
ag1961
ag1962
ag1963
ag1962
ag1963
ag1963
aS'blood'
p1966
aS'blood'
p1967
aS'blood'
p1968
aS'blood'
p1969
aS'blood'
p1970
aS'blood'
p1971
aS'blood'
p1972
aS'blood'
p1973
aS'blood'
p1974
aS'blood'
p1975
aS'blood'
p1976
aS'blood'
p1977
aS'blood'
p1978
aS'blood'
p1979
aS'blood'
p1980
aS'blood'
p1981
aS'blood'
p1982
aS'blood'
p1983
aS'blood'
p1984
aS'blood'
p1985
aS'blood'
p1986
aS'blood'
p1987
aS'blood'
p1988
ag1967
ag1968
ag1969
ag1970
ag1971
ag1972
ag1973
ag1974
ag1975
ag1976
ag1977
ag1978
ag1979
ag1980
ag1981
ag1966
ag1983
ag1984
ag1985
ag1986
ag1987
ag1988
ag1968
ag1969
ag1970
ag1971
ag1972
ag1973
ag1974
ag1975
ag1976
ag1977
ag1978
ag1979
ag1980
ag1981
ag1967
ag1983
ag1984
ag1985
ag1986
ag1987
ag1988
ag1969
ag1970
ag1971
ag1972
ag1973
ag1974
ag1975
ag1976
ag1977
ag1978
ag1979
ag1980
ag1981
ag1968
ag1983
ag1984
ag1985
ag1986
ag1987
ag1988
ag1970
ag1971
ag1972
ag1973
ag1974
ag1975
ag1976
ag1977
ag1978
ag1979
ag1980
ag1981
ag1969
ag1983
ag1984
ag1985
ag1986
ag1987
ag1988
ag1971
ag1972
ag1973
ag1974
ag1975
ag1976
ag1977
ag1978
ag1979
ag1980
ag1981
ag1970
ag1983
ag1984
ag1985
ag1986
ag1987
ag1988
ag1972
ag1973
ag1974
ag1975
ag1976
ag1977
ag1978
ag1979
ag1980
ag1981
ag1971
ag1983
ag1984
ag1985
ag1986
ag1987
ag1988
ag1973
ag1974
ag1975
ag1976
ag1977
ag1978
ag1979
ag1980
ag1981
ag1972
ag1983
ag1984
ag1985
ag1986
ag1987
ag1988
ag1974
ag1975
ag1976
ag1977
ag1978
ag1979
ag1980
ag1981
ag1973
ag1983
ag1984
ag1985
ag1986
ag1987
ag1988
ag1975
ag1976
ag1977
ag1978
ag1979
ag1980
ag1981
ag1974
ag1983
ag1984
ag1985
ag1986
ag1987
ag1988
ag1976
ag1977
ag1978
ag1979
ag1980
ag1981
ag1975
ag1983
ag1984
ag1985
ag1986
ag1987
ag1988
ag1977
ag1978
ag1979
ag1980
ag1981
ag1976
ag1983
ag1984
ag1985
ag1986
ag1987
ag1988
ag1978
ag1979
ag1980
ag1981
ag1977
ag1983
ag1984
ag1985
ag1986
ag1987
ag1988
ag1979
ag1980
ag1981
ag1978
ag1983
ag1984
ag1985
ag1986
ag1987
ag1988
ag1980
ag1981
ag1979
ag1983
ag1984
ag1985
ag1986
ag1987
ag1988
ag1981
ag1980
ag1983
ag1984
ag1985
ag1986
ag1987
ag1988
ag1981
ag1983
ag1984
ag1985
ag1986
ag1987
ag1988
ag1983
ag1984
ag1985
ag1986
ag1987
ag1988
ag1984
ag1985
ag1986
ag1987
ag1988
ag1985
ag1986
ag1987
ag1988
ag1986
ag1987
ag1988
ag1987
ag1988
ag1988
aS'knee'
p1989
aS'knee'
p1990
aS'knee'
p1991
aS'knee'
p1992
aS'knee'
p1993
aS'knee'
p1994
aS'knee'
p1995
aS'knee'
p1996
aS'knee'
p1997
aS'knee'
p1998
aS'knee'
p1999
aS'knee'
p2000
aS'knee'
p2001
aS'knee'
p2002
aS'knee'
p2003
aS'knee'
p2004
aS'knee'
p2005
aS'knee'
p2006
aS'knee'
p2007
aS'knee'
p2008
aS'knee'
p2009
aS'knee'
p2010
aS'knee'
p2011
ag1990
ag1991
ag1992
ag1993
ag1994
ag1995
ag1996
ag1997
ag1998
ag1999
ag1989
ag2001
ag2002
ag2003
ag2004
ag2005
ag2006
ag2007
ag2008
ag2009
ag2010
ag2011
ag1991
ag1992
ag1993
ag1994
ag1995
ag1996
ag1997
ag1998
ag1999
ag1990
ag2001
ag2002
ag2003
ag2004
ag2005
ag2006
ag2007
ag2008
ag2009
ag2010
ag2011
ag1992
ag1993
ag1994
ag1995
ag1996
ag1997
ag1998
ag1999
ag1991
ag2001
ag2002
ag2003
ag2004
ag2005
ag2006
ag2007
ag2008
ag2009
ag2010
ag2011
ag1993
ag1994
ag1995
ag1996
ag1997
ag1998
ag1999
ag1992
ag2001
ag2002
ag2003
ag2004
ag2005
ag2006
ag2007
ag2008
ag2009
ag2010
ag2011
ag1994
ag1995
ag1996
ag1997
ag1998
ag1999
ag1993
ag2001
ag2002
ag2003
ag2004
ag2005
ag2006
ag2007
ag2008
ag2009
ag2010
ag2011
ag1995
ag1996
ag1997
ag1998
ag1999
ag1994
ag2001
ag2002
ag2003
ag2004
ag2005
ag2006
ag2007
ag2008
ag2009
ag2010
ag2011
ag1996
ag1997
ag1998
ag1999
ag1995
ag2001
ag2002
ag2003
ag2004
ag2005
ag2006
ag2007
ag2008
ag2009
ag2010
ag2011
ag1997
ag1998
ag1999
ag1996
ag2001
ag2002
ag2003
ag2004
ag2005
ag2006
ag2007
ag2008
ag2009
ag2010
ag2011
ag1998
ag1999
ag1997
ag2001
ag2002
ag2003
ag2004
ag2005
ag2006
ag2007
ag2008
ag2009
ag2010
ag2011
ag1999
ag1998
ag2001
ag2002
ag2003
ag2004
ag2005
ag2006
ag2007
ag2008
ag2009
ag2010
ag2011
ag1999
ag2001
ag2002
ag2003
ag2004
ag2005
ag2006
ag2007
ag2008
ag2009
ag2010
ag2011
ag2001
ag2002
ag2003
ag2004
ag2005
ag2006
ag2007
ag2008
ag2009
ag2010
ag2011
ag2002
ag2003
ag2004
ag2005
ag2006
ag2007
ag2008
ag2009
ag2010
ag2011
ag2003
ag2004
ag2005
ag2006
ag2007
ag2008
ag2009
ag2010
ag2011
ag2004
ag2005
ag2006
ag2007
ag2008
ag2009
ag2010
ag2011
ag2005
ag2006
ag2007
ag2008
ag2009
ag2010
ag2011
ag2006
ag2007
ag2008
ag2009
ag2010
ag2011
ag2007
ag2008
ag2009
ag2010
ag2011
ag2008
ag2009
ag2010
ag2011
ag2009
ag2010
ag2011
ag2010
ag2011
ag2011
aS'man'
p2012
aS'man'
p2013
aS'man'
p2014
aS'man'
p2015
aS'man'
p2016
aS'man'
p2017
aS'man'
p2018
aS'man'
p2019
aS'man'
p2020
aS'man'
p2021
aS'man'
p2022
aS'man'
p2023
aS'man'
p2024
aS'man'
p2025
aS'man'
p2026
aS'man'
p2027
aS'man'
p2028
aS'man'
p2029
aS'man'
p2030
aS'man'
p2031
aS'man'
p2032
aS'man'
p2033
aS'man'
p2034
ag2013
ag2014
ag2015
ag2016
ag2017
ag2018
ag2019
ag2020
ag2021
ag2022
ag2023
ag2024
ag2025
ag2026
ag2012
ag2028
ag2029
ag2030
ag2031
ag2032
ag2033
ag2034
ag2014
ag2015
ag2016
ag2017
ag2018
ag2019
ag2020
ag2021
ag2022
ag2023
ag2024
ag2025
ag2026
ag2013
ag2028
ag2029
ag2030
ag2031
ag2032
ag2033
ag2034
ag2015
ag2016
ag2017
ag2018
ag2019
ag2020
ag2021
ag2022
ag2023
ag2024
ag2025
ag2026
ag2014
ag2028
ag2029
ag2030
ag2031
ag2032
ag2033
ag2034
ag2016
ag2017
ag2018
ag2019
ag2020
ag2021
ag2022
ag2023
ag2024
ag2025
ag2026
ag2015
ag2028
ag2029
ag2030
ag2031
ag2032
ag2033
ag2034
ag2017
ag2018
ag2019
ag2020
ag2021
ag2022
ag2023
ag2024
ag2025
ag2026
ag2016
ag2028
ag2029
ag2030
ag2031
ag2032
ag2033
ag2034
ag2018
ag2019
ag2020
ag2021
ag2022
ag2023
ag2024
ag2025
ag2026
ag2017
ag2028
ag2029
ag2030
ag2031
ag2032
ag2033
ag2034
ag2019
ag2020
ag2021
ag2022
ag2023
ag2024
ag2025
ag2026
ag2018
ag2028
ag2029
ag2030
ag2031
ag2032
ag2033
ag2034
ag2020
ag2021
ag2022
ag2023
ag2024
ag2025
ag2026
ag2019
ag2028
ag2029
ag2030
ag2031
ag2032
ag2033
ag2034
ag2021
ag2022
ag2023
ag2024
ag2025
ag2026
ag2020
ag2028
ag2029
ag2030
ag2031
ag2032
ag2033
ag2034
ag2022
ag2023
ag2024
ag2025
ag2026
ag2021
ag2028
ag2029
ag2030
ag2031
ag2032
ag2033
ag2034
ag2023
ag2024
ag2025
ag2026
ag2022
ag2028
ag2029
ag2030
ag2031
ag2032
ag2033
ag2034
ag2024
ag2025
ag2026
ag2023
ag2028
ag2029
ag2030
ag2031
ag2032
ag2033
ag2034
ag2025
ag2026
ag2024
ag2028
ag2029
ag2030
ag2031
ag2032
ag2033
ag2034
ag2026
ag2025
ag2028
ag2029
ag2030
ag2031
ag2032
ag2033
ag2034
ag2026
ag2028
ag2029
ag2030
ag2031
ag2032
ag2033
ag2034
ag2028
ag2029
ag2030
ag2031
ag2032
ag2033
ag2034
ag2029
ag2030
ag2031
ag2032
ag2033
ag2034
ag2030
ag2031
ag2032
ag2033
ag2034
ag2031
ag2032
ag2033
ag2034
ag2032
ag2033
ag2034
ag2033
ag2034
ag2034
aS'neck'
p2035
aS'neck'
p2036
aS'neck'
p2037
aS'neck'
p2038
aS'neck'
p2039
aS'neck'
p2040
aS'neck'
p2041
aS'neck'
p2042
aS'neck'
p2043
aS'neck'
p2044
aS'neck'
p2045
aS'neck'
p2046
aS'neck'
p2047
aS'neck'
p2048
aS'neck'
p2049
aS'neck'
p2050
aS'neck'
p2051
aS'neck'
p2052
aS'neck'
p2053
aS'neck'
p2054
aS'neck'
p2055
aS'neck'
p2056
ag2036
ag2037
ag2038
ag2039
ag2040
ag2041
ag2042
ag2043
ag2044
ag2045
ag2046
ag2047
ag2048
ag2049
ag2050
ag2051
ag2052
ag2053
ag2054
ag2055
ag2056
ag2037
ag2038
ag2039
ag2040
ag2041
ag2042
ag2043
ag2044
ag2045
ag2046
ag2047
ag2048
ag2049
ag2050
ag2051
ag2052
ag2053
ag2054
ag2055
ag2056
ag2038
ag2039
ag2040
ag2041
ag2042
ag2043
ag2044
ag2045
ag2046
ag2047
ag2048
ag2049
ag2050
ag2051
ag2052
ag2053
ag2054
ag2055
ag2056
ag2039
ag2040
ag2041
ag2042
ag2043
ag2044
ag2045
ag2046
ag2047
ag2048
ag2049
ag2050
ag2051
ag2052
ag2053
ag2054
ag2055
ag2056
ag2040
ag2041
ag2042
ag2043
ag2044
ag2045
ag2046
ag2047
ag2048
ag2049
ag2050
ag2051
ag2052
ag2053
ag2054
ag2055
ag2056
ag2041
ag2042
ag2043
ag2044
ag2045
ag2046
ag2047
ag2048
ag2049
ag2050
ag2051
ag2052
ag2053
ag2054
ag2055
ag2056
ag2042
ag2043
ag2044
ag2045
ag2046
ag2047
ag2048
ag2049
ag2050
ag2051
ag2052
ag2053
ag2054
ag2055
ag2056
ag2043
ag2044
ag2045
ag2046
ag2047
ag2048
ag2049
ag2050
ag2051
ag2052
ag2053
ag2054
ag2055
ag2056
ag2044
ag2045
ag2046
ag2047
ag2048
ag2049
ag2050
ag2051
ag2052
ag2053
ag2054
ag2055
ag2056
ag2045
ag2046
ag2047
ag2048
ag2049
ag2050
ag2051
ag2052
ag2053
ag2054
ag2055
ag2056
ag2046
ag2047
ag2048
ag2049
ag2050
ag2051
ag2052
ag2053
ag2054
ag2055
ag2056
ag2047
ag2048
ag2049
ag2050
ag2051
ag2052
ag2053
ag2054
ag2055
ag2056
ag2048
ag2049
ag2050
ag2051
ag2052
ag2053
ag2054
ag2055
ag2056
ag2049
ag2050
ag2051
ag2052
ag2053
ag2054
ag2055
ag2056
ag2050
ag2051
ag2052
ag2053
ag2054
ag2055
ag2056
ag2051
ag2052
ag2053
ag2054
ag2055
ag2056
ag2052
ag2053
ag2054
ag2055
ag2056
ag2053
ag2054
ag2055
ag2056
ag2054
ag2055
ag2056
ag2055
ag2056
ag2056
aS'dog'
p2057
aS'dog'
p2058
aS'dog'
p2059
aS'dog'
p2060
aS'dog'
p2061
aS'dog'
p2062
aS'dog'
p2063
aS'dog'
p2064
aS'dog'
p2065
aS'dog'
p2066
aS'dog'
p2067
aS'dog'
p2068
aS'dog'
p2069
aS'dog'
p2070
aS'dog'
p2071
aS'dog'
p2072
aS'dog'
p2073
aS'dog'
p2074
aS'dog'
p2075
aS'dog'
p2076
aS'dog'
p2077
aS'dog'
p2078
aS'dog'
p2079
ag2058
ag2059
ag2060
ag2061
ag2062
ag2063
ag2064
ag2065
ag2066
ag2067
ag2068
ag2057
ag2070
ag2071
ag2072
ag2073
ag2074
ag2075
ag2076
ag2077
ag2078
ag2079
ag2059
ag2060
ag2061
ag2062
ag2063
ag2064
ag2065
ag2066
ag2067
ag2068
ag2058
ag2070
ag2071
ag2072
ag2073
ag2074
ag2075
ag2076
ag2077
ag2078
ag2079
ag2060
ag2061
ag2062
ag2063
ag2064
ag2065
ag2066
ag2067
ag2068
ag2059
ag2070
ag2071
ag2072
ag2073
ag2074
ag2075
ag2076
ag2077
ag2078
ag2079
ag2061
ag2062
ag2063
ag2064
ag2065
ag2066
ag2067
ag2068
ag2060
ag2070
ag2071
ag2072
ag2073
ag2074
ag2075
ag2076
ag2077
ag2078
ag2079
ag2062
ag2063
ag2064
ag2065
ag2066
ag2067
ag2068
ag2061
ag2070
ag2071
ag2072
ag2073
ag2074
ag2075
ag2076
ag2077
ag2078
ag2079
ag2063
ag2064
ag2065
ag2066
ag2067
ag2068
ag2062
ag2070
ag2071
ag2072
ag2073
ag2074
ag2075
ag2076
ag2077
ag2078
ag2079
ag2064
ag2065
ag2066
ag2067
ag2068
ag2063
ag2070
ag2071
ag2072
ag2073
ag2074
ag2075
ag2076
ag2077
ag2078
ag2079
ag2065
ag2066
ag2067
ag2068
ag2064
ag2070
ag2071
ag2072
ag2073
ag2074
ag2075
ag2076
ag2077
ag2078
ag2079
ag2066
ag2067
ag2068
ag2065
ag2070
ag2071
ag2072
ag2073
ag2074
ag2075
ag2076
ag2077
ag2078
ag2079
ag2067
ag2068
ag2066
ag2070
ag2071
ag2072
ag2073
ag2074
ag2075
ag2076
ag2077
ag2078
ag2079
ag2068
ag2067
ag2070
ag2071
ag2072
ag2073
ag2074
ag2075
ag2076
ag2077
ag2078
ag2079
ag2068
ag2070
ag2071
ag2072
ag2073
ag2074
ag2075
ag2076
ag2077
ag2078
ag2079
ag2070
ag2071
ag2072
ag2073
ag2074
ag2075
ag2076
ag2077
ag2078
ag2079
ag2071
ag2072
ag2073
ag2074
ag2075
ag2076
ag2077
ag2078
ag2079
ag2072
ag2073
ag2074
ag2075
ag2076
ag2077
ag2078
ag2079
ag2073
ag2074
ag2075
ag2076
ag2077
ag2078
ag2079
ag2074
ag2075
ag2076
ag2077
ag2078
ag2079
ag2075
ag2076
ag2077
ag2078
ag2079
ag2076
ag2077
ag2078
ag2079
ag2077
ag2078
ag2079
ag2078
ag2079
ag2079
aS'tooth'
p2080
aS'tooth'
p2081
aS'tooth'
p2082
aS'tooth'
p2083
aS'tooth'
p2084
aS'tooth'
p2085
aS'tooth'
p2086
aS'tooth'
p2087
aS'tooth'
p2088
aS'tooth'
p2089
aS'tooth'
p2090
aS'tooth'
p2091
aS'tooth'
p2092
aS'tooth'
p2093
aS'tooth'
p2094
aS'tooth'
p2095
aS'tooth'
p2096
aS'tooth'
p2097
aS'tooth'
p2098
aS'tooth'
p2099
aS'tooth'
p2100
ag2081
ag2082
ag2083
ag2084
ag2085
ag2086
ag2087
ag2088
ag2089
ag2080
ag2091
ag2092
ag2093
ag2094
ag2095
ag2096
ag2097
ag2098
ag2099
ag2100
ag2082
ag2083
ag2084
ag2085
ag2086
ag2087
ag2088
ag2089
ag2081
ag2091
ag2092
ag2093
ag2094
ag2095
ag2096
ag2097
ag2098
ag2099
ag2100
ag2083
ag2084
ag2085
ag2086
ag2087
ag2088
ag2089
ag2082
ag2091
ag2092
ag2093
ag2094
ag2095
ag2096
ag2097
ag2098
ag2099
ag2100
ag2084
ag2085
ag2086
ag2087
ag2088
ag2089
ag2083
ag2091
ag2092
ag2093
ag2094
ag2095
ag2096
ag2097
ag2098
ag2099
ag2100
ag2085
ag2086
ag2087
ag2088
ag2089
ag2084
ag2091
ag2092
ag2093
ag2094
ag2095
ag2096
ag2097
ag2098
ag2099
ag2100
ag2086
ag2087
ag2088
ag2089
ag2085
ag2091
ag2092
ag2093
ag2094
ag2095
ag2096
ag2097
ag2098
ag2099
ag2100
ag2087
ag2088
ag2089
ag2086
ag2091
ag2092
ag2093
ag2094
ag2095
ag2096
ag2097
ag2098
ag2099
ag2100
ag2088
ag2089
ag2087
ag2091
ag2092
ag2093
ag2094
ag2095
ag2096
ag2097
ag2098
ag2099
ag2100
ag2089
ag2088
ag2091
ag2092
ag2093
ag2094
ag2095
ag2096
ag2097
ag2098
ag2099
ag2100
ag2089
ag2091
ag2092
ag2093
ag2094
ag2095
ag2096
ag2097
ag2098
ag2099
ag2100
ag2091
ag2092
ag2093
ag2094
ag2095
ag2096
ag2097
ag2098
ag2099
ag2100
ag2092
ag2093
ag2094
ag2095
ag2096
ag2097
ag2098
ag2099
ag2100
ag2093
ag2094
ag2095
ag2096
ag2097
ag2098
ag2099
ag2100
ag2094
ag2095
ag2096
ag2097
ag2098
ag2099
ag2100
ag2095
ag2096
ag2097
ag2098
ag2099
ag2100
ag2096
ag2097
ag2098
ag2099
ag2100
ag2097
ag2098
ag2099
ag2100
ag2098
ag2099
ag2100
ag2099
ag2100
ag2100
aS'person'
p2101
aS'person'
p2102
aS'person'
p2103
aS'person'
p2104
aS'person'
p2105
aS'person'
p2106
aS'person'
p2107
aS'person'
p2108
aS'person'
p2109
aS'person'
p2110
aS'person'
p2111
aS'person'
p2112
aS'person'
p2113
aS'person'
p2114
aS'person'
p2115
aS'person'
p2116
aS'person'
p2117
aS'person'
p2118
aS'person'
p2119
aS'person'
p2120
aS'person'
p2121
aS'person'
p2122
aS'person'
p2123
ag2102
ag2103
ag2104
ag2105
ag2106
ag2107
ag2108
ag2109
ag2110
ag2111
ag2112
ag2113
ag2114
ag2115
ag2116
ag2101
ag2118
ag2119
ag2120
ag2121
ag2122
ag2123
ag2103
ag2104
ag2105
ag2106
ag2107
ag2108
ag2109
ag2110
ag2111
ag2112
ag2113
ag2114
ag2115
ag2116
ag2102
ag2118
ag2119
ag2120
ag2121
ag2122
ag2123
ag2104
ag2105
ag2106
ag2107
ag2108
ag2109
ag2110
ag2111
ag2112
ag2113
ag2114
ag2115
ag2116
ag2103
ag2118
ag2119
ag2120
ag2121
ag2122
ag2123
ag2105
ag2106
ag2107
ag2108
ag2109
ag2110
ag2111
ag2112
ag2113
ag2114
ag2115
ag2116
ag2104
ag2118
ag2119
ag2120
ag2121
ag2122
ag2123
ag2106
ag2107
ag2108
ag2109
ag2110
ag2111
ag2112
ag2113
ag2114
ag2115
ag2116
ag2105
ag2118
ag2119
ag2120
ag2121
ag2122
ag2123
ag2107
ag2108
ag2109
ag2110
ag2111
ag2112
ag2113
ag2114
ag2115
ag2116
ag2106
ag2118
ag2119
ag2120
ag2121
ag2122
ag2123
ag2108
ag2109
ag2110
ag2111
ag2112
ag2113
ag2114
ag2115
ag2116
ag2107
ag2118
ag2119
ag2120
ag2121
ag2122
ag2123
ag2109
ag2110
ag2111
ag2112
ag2113
ag2114
ag2115
ag2116
ag2108
ag2118
ag2119
ag2120
ag2121
ag2122
ag2123
ag2110
ag2111
ag2112
ag2113
ag2114
ag2115
ag2116
ag2109
ag2118
ag2119
ag2120
ag2121
ag2122
ag2123
ag2111
ag2112
ag2113
ag2114
ag2115
ag2116
ag2110
ag2118
ag2119
ag2120
ag2121
ag2122
ag2123
ag2112
ag2113
ag2114
ag2115
ag2116
ag2111
ag2118
ag2119
ag2120
ag2121
ag2122
ag2123
ag2113
ag2114
ag2115
ag2116
ag2112
ag2118
ag2119
ag2120
ag2121
ag2122
ag2123
ag2114
ag2115
ag2116
ag2113
ag2118
ag2119
ag2120
ag2121
ag2122
ag2123
ag2115
ag2116
ag2114
ag2118
ag2119
ag2120
ag2121
ag2122
ag2123
ag2116
ag2115
ag2118
ag2119
ag2120
ag2121
ag2122
ag2123
ag2116
ag2118
ag2119
ag2120
ag2121
ag2122
ag2123
ag2118
ag2119
ag2120
ag2121
ag2122
ag2123
ag2119
ag2120
ag2121
ag2122
ag2123
ag2120
ag2121
ag2122
ag2123
ag2121
ag2122
ag2123
ag2122
ag2123
ag2123
aS'green'
p2124
aS'green'
p2125
aS'green'
p2126
aS'green'
p2127
aS'green'
p2128
aS'green'
p2129
aS'green'
p2130
aS'green'
p2131
aS'green'
p2132
aS'green'
p2133
aS'green'
p2134
aS'green'
p2135
aS'green'
p2136
aS'green'
p2137
aS'green'
p2138
aS'green'
p2139
aS'green'
p2140
aS'green'
p2141
aS'green'
p2142
aS'green'
p2143
aS'green'
p2144
aS'green'
p2145
aS'green'
p2146
ag2125
ag2126
ag2127
ag2128
ag2129
ag2130
ag2131
ag2132
ag2133
ag2134
ag2135
ag2136
ag2137
ag2138
ag2139
ag2140
ag2141
ag2142
ag2143
ag2144
ag2145
ag2146
ag2126
ag2127
ag2128
ag2129
ag2130
ag2131
ag2132
ag2133
ag2134
ag2135
ag2136
ag2137
ag2138
ag2139
ag2140
ag2141
ag2142
ag2143
ag2144
ag2145
ag2146
ag2127
ag2128
ag2129
ag2130
ag2131
ag2132
ag2133
ag2134
ag2135
ag2136
ag2137
ag2138
ag2139
ag2140
ag2141
ag2142
ag2143
ag2144
ag2145
ag2146
ag2128
ag2129
ag2130
ag2131
ag2132
ag2133
ag2134
ag2135
ag2136
ag2137
ag2138
ag2139
ag2140
ag2141
ag2142
ag2143
ag2144
ag2145
ag2146
ag2129
ag2130
ag2131
ag2132
ag2133
ag2134
ag2135
ag2136
ag2137
ag2138
ag2139
ag2140
ag2141
ag2142
ag2143
ag2144
ag2145
ag2146
ag2130
ag2131
ag2132
ag2133
ag2134
ag2135
ag2136
ag2137
ag2138
ag2139
ag2140
ag2141
ag2142
ag2143
ag2144
ag2145
ag2146
ag2131
ag2132
ag2133
ag2134
ag2135
ag2136
ag2137
ag2138
ag2139
ag2140
ag2141
ag2142
ag2143
ag2144
ag2145
ag2146
ag2132
ag2133
ag2134
ag2135
ag2136
ag2137
ag2138
ag2139
ag2140
ag2141
ag2142
ag2143
ag2144
ag2145
ag2146
ag2133
ag2134
ag2135
ag2136
ag2137
ag2138
ag2139
ag2140
ag2141
ag2142
ag2143
ag2144
ag2145
ag2146
ag2134
ag2135
ag2136
ag2137
ag2138
ag2139
ag2140
ag2141
ag2142
ag2143
ag2144
ag2145
ag2146
ag2135
ag2136
ag2137
ag2138
ag2139
ag2140
ag2141
ag2142
ag2143
ag2144
ag2145
ag2146
ag2136
ag2137
ag2138
ag2139
ag2140
ag2141
ag2142
ag2143
ag2144
ag2145
ag2146
ag2137
ag2138
ag2139
ag2140
ag2141
ag2142
ag2143
ag2144
ag2145
ag2146
ag2138
ag2139
ag2140
ag2141
ag2142
ag2143
ag2144
ag2145
ag2146
ag2139
ag2140
ag2141
ag2142
ag2143
ag2144
ag2145
ag2146
ag2140
ag2141
ag2142
ag2143
ag2144
ag2145
ag2146
ag2141
ag2142
ag2143
ag2144
ag2145
ag2146
ag2142
ag2143
ag2144
ag2145
ag2146
ag2143
ag2144
ag2145
ag2146
ag2144
ag2145
ag2146
ag2145
ag2146
ag2146
aS'egg'
p2147
aS'egg'
p2148
aS'egg'
p2149
aS'egg'
p2150
aS'egg'
p2151
aS'egg'
p2152
aS'egg'
p2153
aS'egg'
p2154
aS'egg'
p2155
aS'egg'
p2156
aS'egg'
p2157
aS'egg'
p2158
aS'egg'
p2159
aS'egg'
p2160
aS'egg'
p2161
aS'egg'
p2162
aS'egg'
p2163
aS'egg'
p2164
aS'egg'
p2165
aS'egg'
p2166
aS'egg'
p2167
aS'egg'
p2168
ag2148
ag2149
ag2150
ag2151
ag2152
ag2153
ag2154
ag2155
ag2156
ag2157
ag2158
ag2159
ag2160
ag2161
ag2162
ag2163
ag2164
ag2165
ag2166
ag2167
ag2168
ag2149
ag2150
ag2151
ag2152
ag2153
ag2154
ag2155
ag2156
ag2157
ag2158
ag2159
ag2160
ag2161
ag2162
ag2163
ag2164
ag2165
ag2166
ag2167
ag2168
ag2150
ag2151
ag2152
ag2153
ag2154
ag2155
ag2156
ag2157
ag2158
ag2159
ag2160
ag2161
ag2162
ag2163
ag2164
ag2165
ag2166
ag2167
ag2168
ag2151
ag2152
ag2153
ag2154
ag2155
ag2156
ag2157
ag2158
ag2159
ag2160
ag2161
ag2162
ag2163
ag2164
ag2165
ag2166
ag2167
ag2168
ag2152
ag2153
ag2154
ag2155
ag2156
ag2157
ag2158
ag2159
ag2160
ag2161
ag2162
ag2163
ag2164
ag2165
ag2166
ag2167
ag2168
ag2153
ag2154
ag2155
ag2156
ag2157
ag2158
ag2159
ag2160
ag2161
ag2162
ag2163
ag2164
ag2165
ag2166
ag2167
ag2168
ag2154
ag2155
ag2156
ag2157
ag2158
ag2159
ag2160
ag2161
ag2162
ag2163
ag2164
ag2165
ag2166
ag2167
ag2168
ag2155
ag2156
ag2157
ag2158
ag2159
ag2160
ag2161
ag2162
ag2163
ag2164
ag2165
ag2166
ag2167
ag2168
ag2156
ag2157
ag2158
ag2159
ag2160
ag2161
ag2162
ag2163
ag2164
ag2165
ag2166
ag2167
ag2168
ag2157
ag2158
ag2159
ag2160
ag2161
ag2162
ag2163
ag2164
ag2165
ag2166
ag2167
ag2168
ag2158
ag2159
ag2160
ag2161
ag2162
ag2163
ag2164
ag2165
ag2166
ag2167
ag2168
ag2159
ag2160
ag2161
ag2162
ag2163
ag2164
ag2165
ag2166
ag2167
ag2168
ag2160
ag2161
ag2162
ag2163
ag2164
ag2165
ag2166
ag2167
ag2168
ag2161
ag2162
ag2163
ag2164
ag2165
ag2166
ag2167
ag2168
ag2162
ag2163
ag2164
ag2165
ag2166
ag2167
ag2168
ag2163
ag2164
ag2165
ag2166
ag2167
ag2168
ag2164
ag2165
ag2166
ag2167
ag2168
ag2165
ag2166
ag2167
ag2168
ag2166
ag2167
ag2168
ag2167
ag2168
ag2168
aa(lp2169
S'all'
p2170
aS'all'
p2171
aS'all'
p2172
aS'all'
p2173
aS'all'
p2174
ag2171
ag2172
ag2173
ag2174
ag2172
ag2173
ag2174
ag2173
ag2174
ag2174
aS'flesh'
p2175
aS'flesh'
p2176
aS'flesh'
p2177
aS'flesh'
p2178
aS'flesh'
p2179
ag2176
ag2177
ag2178
ag2179
ag2177
ag2178
ag2179
ag2178
ag2179
ag2179
aS'yellow'
p2180
aS'yellow'
p2181
aS'yellow'
p2182
aS'yellow'
p2183
aS'yellow'
p2184
ag2181
ag2182
ag2183
ag2184
ag2182
ag2183
ag2184
ag2183
ag2184
ag2184
aS'not'
p2185
aS'not'
p2186
aS'not'
p2187
aS'not'
p2188
aS'not'
p2189
ag2186
ag2187
ag2188
ag2189
ag2187
ag2188
ag2189
ag2188
ag2189
ag2189
aS'sleep'
p2190
aS'sleep'
p2191
aS'sleep'
p2192
aS'sleep'
p2193
aS'sleep'
p2194
ag2191
ag2192
ag2193
ag2194
ag2192
ag2193
ag2194
ag2193
ag2194
ag2194
aS'skin'
p2195
aS'skin'
p2196
ag2195
ag2195
aS'skin'
p2197
ag2196
aS'bark'
p2198
aS'bark'
p2199
ag2197
ag2196
ag2196
ag2197
ag2199
ag2197
ag2197
aS'earth'
p2200
aS'earth'
p2201
aS'earth'
p2202
aS'earth'
p2203
aS'earth'
p2204
ag2201
ag2202
ag2203
ag2204
ag2202
ag2203
ag2204
ag2203
ag2204
ag2204
aS'cold'
p2205
aS'cold'
p2206
aS'cold'
p2207
aS'cold'
p2208
aS'cold'
p2209
ag2206
ag2207
ag2208
ag2209
ag2207
ag2208
ag2209
ag2208
ag2209
ag2209
aS'eat'
p2210
aS'eat'
p2211
aS'eat'
p2212
aS'eat'
p2213
aS'eat'
p2214
ag2211
ag2212
ag2213
ag2210
ag2212
ag2213
ag2211
ag2213
ag2212
ag2213
aS'tail'
p2215
aS'tail'
p2216
aS'tail'
p2217
aS'tail'
p2218
aS'tail'
p2219
ag2216
ag2217
ag2218
ag2219
ag2217
ag2218
ag2219
ag2218
ag2219
ag2219
aS'black'
p2220
aS'black'
p2221
aS'black'
p2222
aS'black'
p2223
aS'black'
p2224
ag2221
ag2222
ag2223
ag2224
ag2222
ag2223
ag2224
ag2223
ag2224
ag2224
aS'swim'
p2225
aS'swim'
p2226
aS'swim'
p2227
aS'swim'
p2228
aS'swim'
p2229
ag2226
ag2227
ag2228
ag2229
ag2227
ag2228
ag2229
ag2228
ag2229
ag2229
aS'good'
p2230
aS'good'
p2231
aS'good'
p2232
aS'good'
p2233
aS'good'
p2234
ag2231
ag2232
ag2233
ag2234
ag2232
ag2233
ag2234
ag2233
ag2234
ag2234
aS'big'
p2235
aS'big'
p2236
aS'big'
p2237
aS'big'
p2238
aS'big'
p2239
ag2236
ag2237
ag2238
ag2239
ag2237
ag2238
ag2239
ag2238
ag2239
ag2239
aS'know'
p2240
aS'know'
p2241
aS'know'
p2242
aS'know'
p2243
aS'know'
p2244
ag2241
ag2242
ag2243
ag2244
ag2242
ag2243
ag2244
ag2243
ag2244
ag2244
aS'foot'
p2245
aS'foot'
p2246
aS'foot'
p2247
aS'foot'
p2248
aS'foot'
p2249
ag2246
ag2247
ag2248
ag2249
ag2247
ag2248
ag2249
ag2248
ag2249
ag2249
aS'walk'
p2250
aS'walk'
p2251
aS'walk'
p2252
aS'walk'
p2253
aS'walk'
p2254
ag2251
ag2252
ag2253
ag2254
ag2252
ag2253
ag2254
ag2253
ag2254
ag2254
aS'name'
p2255
aS'name'
p2256
aS'name'
p2257
aS'name'
p2258
aS'name'
p2259
ag2256
ag2257
ag2258
ag2259
ag2257
ag2258
ag2259
ag2258
ag2259
ag2259
aS'die'
p2260
aS'die'
p2261
aS'die'
p2262
aS'die'
p2263
aS'die'
p2264
ag2261
ag2262
ag2263
ag2264
ag2262
ag2263
ag2264
ag2263
ag2264
ag2264
aS'sand'
p2265
aS'sand'
p2266
aS'sand'
p2267
aS'sand'
p2268
aS'sand'
p2269
ag2266
ag2267
ag2268
ag2269
ag2267
ag2268
ag2269
ag2268
ag2269
ag2269
aS'nose'
p2270
aS'nose'
p2271
aS'nose'
p2272
aS'nose'
p2273
aS'nose'
p2274
ag2271
ag2272
ag2273
ag2274
ag2272
ag2273
ag2274
ag2273
ag2274
ag2274
aS'night'
p2275
aS'night'
p2276
aS'night'
p2277
aS'night'
p2278
aS'night'
p2279
ag2276
ag2277
ag2278
ag2279
ag2277
ag2278
ag2279
ag2278
ag2279
ag2279
aS'small'
p2280
aS'small'
p2281
aS'small'
p2282
aS'small'
p2283
aS'small'
p2284
ag2281
ag2282
ag2283
ag2284
ag2282
ag2283
ag2284
ag2283
ag2284
ag2284
aS'claw'
p2285
aS'claw'
p2286
aS'claw'
p2287
aS'claw'
p2288
aS'claw'
p2289
ag2286
ag2287
ag2288
ag2289
ag2287
ag2288
ag2289
ag2288
ag2289
ag2289
aS'round'
p2290
aS'round'
p2291
aS'round'
p2292
aS'round'
p2293
aS'round'
p2294
ag2291
ag2292
ag2293
ag2294
ag2292
ag2293
ag2294
ag2293
ag2294
ag2294
aS'bone'
p2295
aS'bone'
p2296
aS'bone'
p2297
aS'bone'
p2298
aS'bone'
p2299
ag2296
ag2297
ag2298
ag2299
ag2297
ag2298
ag2299
ag2298
ag2299
ag2299
aS'kill'
p2300
aS'kill'
p2301
aS'kill'
p2302
aS'kill'
p2303
aS'kill'
p2304
ag2301
ag2302
ag2303
ag2304
ag2302
ag2303
ag2304
ag2303
ag2304
ag2304
aS'fish'
p2305
aS'fish'
p2306
aS'fish'
p2307
aS'fish'
p2308
aS'fish'
p2309
ag2306
ag2305
ag2308
ag2309
ag2306
ag2308
ag2309
ag2308
ag2309
ag2309
aS'horn'
p2310
aS'horn'
p2311
aS'horn'
p2312
aS'horn'
p2313
aS'horn'
p2314
ag2311
ag2312
ag2313
ag2314
ag2312
ag2313
ag2314
ag2313
ag2314
ag2314
aS'hair'
p2315
ag2315
ag2315
aS'hair'
p2316
aS'hair'
p2317
aS'hair'
p2318
ag2316
ag2318
ag2316
ag2316
aS'see'
p2319
aS'see'
p2320
aS'see'
p2321
aS'see'
p2322
aS'see'
p2323
ag2320
ag2321
ag2322
ag2323
ag2321
ag2322
ag2323
ag2322
ag2323
ag2323
aS'full'
p2324
aS'full'
p2325
aS'full'
p2326
aS'full'
p2327
aS'full'
p2328
ag2325
ag2326
ag2327
ag2328
ag2326
ag2327
ag2328
ag2327
ag2328
ag2328
aS'bark'
p2329
aS'bark'
p2330
aS'bark'
p2331
ag2331
ag2331
ag2330
ag2329
ag2329
ag2329
ag2330
ag2330
ag2330
aS'bark'
p2332
ag2199
ag2199
aS'what'
p2333
aS'what'
p2334
aS'what'
p2335
aS'what'
p2336
aS'what'
p2337
ag2334
ag2335
ag2336
ag2337
ag2335
ag2336
ag2337
ag2336
ag2337
ag2337
aS'leaf'
p2338
aS'leaf'
p2339
aS'leaf'
p2340
aS'leaf'
p2341
ag2339
ag2338
ag2340
ag2341
ag2338
ag2340
ag2341
aS'white'
p2342
ag2341
ag2340
ag2341
aS'sun'
p2343
aS'sun'
p2344
aS'sun'
p2345
aS'sun'
p2346
aS'sun'
p2347
ag2344
ag2345
ag2346
ag2347
ag2345
ag2346
ag2347
ag2346
ag2347
ag2347
aS'moon'
p2348
aS'moon'
p2349
aS'moon'
p2350
aS'moon'
p2351
aS'moon'
p2352
ag2349
ag2350
ag2351
ag2352
ag2350
ag2351
ag2352
ag2351
ag2352
ag2352
aS'new'
p2353
aS'new'
p2354
aS'new'
p2355
aS'new'
p2356
aS'new'
p2357
ag2354
ag2355
ag2356
ag2357
ag2355
ag2356
ag2357
ag2356
ag2357
ag2357
aS'bird'
p2358
aS'bird'
p2359
aS'bird'
p2360
aS'bird'
p2361
aS'bird'
p2362
ag2359
ag2360
ag2361
ag2362
ag2360
ag2361
ag2362
ag2361
ag2362
ag2362
aS'red'
p2363
aS'red'
p2364
aS'red'
p2365
aS'red'
p2366
aS'red'
p2367
ag2364
ag2365
ag2366
ag2367
ag2365
ag2366
ag2367
ag2366
ag2367
ag2367
aS'we'
p2368
aS'we'
p2369
aS'we'
p2370
aS'we'
p2371
aS'we'
p2372
ag2369
ag2370
ag2371
ag2372
ag2370
ag2371
ag2372
ag2371
ag2372
ag2372
aS'grease'
p2373
aS'grease'
p2374
aS'grease'
p2375
aS'grease'
p2376
aS'grease'
p2377
ag2374
ag2375
ag2376
ag2377
ag2375
ag2376
ag2377
ag2376
ag2377
ag2377
aS'burn'
p2378
aS'burn'
p2379
aS'burn'
p2380
aS'burn'
p2381
aS'burn'
p2382
ag2379
ag2380
ag2381
ag2382
ag2380
ag2381
ag2382
ag2381
ag2382
ag2382
aS'water'
p2383
aS'water'
p2384
aS'water'
p2385
aS'water'
p2386
ag2383
ag2384
ag2385
ag2386
aS'water'
p2387
ag2385
ag2386
ag2384
ag2386
ag2385
ag2386
aS'path'
p2388
aS'path'
p2389
aS'path'
p2390
aS'path'
p2391
aS'path'
p2392
ag2389
ag2390
ag2391
ag2392
ag2390
ag2391
ag2392
ag2391
ag2392
ag2392
aS'ash'
p2393
aS'ash'
p2394
aS'ash'
p2395
aS'ash'
p2396
aS'ash'
p2397
ag2394
ag2395
ag2396
ag2397
ag2395
ag2396
ag2397
ag2396
ag2397
ag2397
aS'come'
p2398
aS'come'
p2399
aS'come'
p2400
aS'come'
p2401
aS'come'
p2402
ag2399
ag2400
ag2401
ag2402
ag2400
ag2401
ag2402
ag2401
ag2402
ag2402
aS'dry'
p2403
aS'dry'
p2404
aS'dry'
p2405
aS'dry'
p2406
aS'dry'
p2407
ag2404
ag2405
ag2406
ag2407
ag2405
ag2406
ag2407
ag2406
ag2407
ag2407
aS'stone'
p2408
aS'stone'
p2409
aS'stone'
p2410
aS'stone'
p2411
aS'stone'
p2412
ag2409
ag2410
ag2411
ag2412
ag2410
ag2411
ag2412
ag2411
ag2412
ag2412
aS'many'
p2413
aS'many'
p2414
aS'many'
p2415
aS'many'
p2416
aS'many'
p2417
ag2414
ag2415
ag2416
ag2417
ag2415
ag2416
ag2417
ag2416
ag2417
ag2417
aS'drink'
p2418
aS'louse'
p2419
aS'louse'
p2420
aS'louse'
p2421
aS'louse'
p2422
ag2419
ag2420
ag2421
ag2422
ag2420
ag2421
ag2422
ag2421
ag2422
ag2422
aS'stand'
p2423
aS'stand'
p2424
aS'stand'
p2425
aS'stand'
p2426
aS'stand'
p2427
ag2424
ag2425
ag2426
ag2427
ag2425
ag2426
ag2427
ag2426
ag2427
ag2427
aS'smoke'
p2428
aS'smoke'
p2429
aS'smoke'
p2430
aS'smoke'
p2431
aS'smoke'
p2432
ag2429
ag2430
ag2431
ag2432
ag2430
ag2431
ag2432
ag2431
ag2432
ag2432
aS'tongue'
p2433
aS'tongue'
p2434
aS'tongue'
p2435
aS'tongue'
p2436
ag2434
ag2435
ag2433
ag2435
ag2434
ag2435
aS'one'
p2437
aS'one'
p2438
aS'one'
p2439
aS'one'
p2440
aS'one'
p2441
ag2438
ag2439
ag2440
ag2441
ag2439
ag2440
ag2441
ag2440
ag2441
ag2441
aS'cloud'
p2442
aS'cloud'
p2443
aS'cloud'
p2444
aS'cloud'
p2445
aS'cloud'
p2446
ag2443
ag2444
ag2445
ag2446
ag2444
ag2445
ag2446
ag2445
ag2446
ag2446
aS'eye'
p2447
aS'eye'
p2448
aS'eye'
p2449
aS'eye'
p2450
aS'eye'
p2451
ag2448
ag2449
ag2450
ag2451
ag2449
ag2450
ag2451
ag2450
ag2451
ag2451
aS'bite'
p2452
aS'bite'
p2453
aS'bite'
p2454
aS'bite'
p2455
aS'bite'
p2456
ag2453
ag2454
ag2455
ag2456
ag2454
ag2455
ag2456
ag2455
ag2456
ag2456
aS'two'
p2457
aS'two'
p2458
aS'two'
p2459
aS'two'
p2460
aS'two'
p2461
ag2458
ag2459
ag2460
ag2461
ag2459
ag2460
ag2461
ag2460
ag2461
ag2461
aS'long'
p2462
aS'long'
p2463
aS'long'
p2464
aS'long'
p2465
aS'long'
p2466
ag2463
ag2464
ag2465
ag2466
ag2464
ag2465
ag2466
ag2465
ag2466
ag2466
aS'white'
p2467
aS'white'
p2468
ag2468
aS'white'
p2469
aS'white'
p2470
ag2467
ag2467
ag2469
ag2470
aS'white'
p2471
ag2469
ag2470
ag2469
ag2470
ag2470
aS'head'
p2472
aS'head'
p2473
aS'head'
p2474
aS'head'
p2475
aS'head'
p2476
ag2473
ag2474
ag2475
ag2476
ag2474
ag2475
ag2476
ag2475
ag2476
ag2476
aS'that'
p2477
aS'that'
p2478
aS'that'
p2479
aS'that'
p2480
aS'that'
p2481
ag2478
ag2479
ag2480
ag2481
ag2479
ag2480
ag2481
ag2480
ag2481
ag2481
aS'fire'
p2482
aS'fire'
p2483
aS'fire'
p2484
aS'fire'
p2485
aS'fire'
p2486
ag2483
ag2484
ag2485
ag2486
ag2484
ag2485
ag2486
ag2485
ag2486
ag2486
aS'hear'
p2487
aS'hear'
p2488
aS'hear'
p2489
aS'hear'
p2490
aS'hear'
p2491
ag2488
ag2489
ag2490
ag2491
ag2489
ag2490
ag2491
ag2490
ag2491
ag2491
aS'liver'
p2492
aS'liver'
p2493
aS'liver'
p2494
aS'liver'
p2495
aS'liver'
p2496
ag2493
ag2494
ag2495
ag2496
ag2494
ag2495
ag2496
ag2495
ag2496
ag2496
aS'ear'
p2497
aS'ear'
p2498
aS'ear'
p2499
aS'ear'
p2500
aS'ear'
p2501
ag2498
ag2499
ag2500
ag2501
ag2499
ag2500
ag2501
ag2500
ag2501
ag2501
aS'feather'
p2502
aS'feather'
p2503
aS'feather'
p2504
ag2504
ag2504
ag2503
ag2502
ag2502
ag2502
ag2503
ag2503
ag2503
ag2318
aS'hair'
p2505
ag2505
aS'fly'
p2506
aS'fly'
p2507
aS'fly'
p2508
aS'fly'
p2509
aS'fly'
p2510
ag2507
ag2508
ag2509
ag2510
ag2508
ag2509
ag2510
ag2509
ag2510
ag2510
aS'this'
p2511
aS'this'
p2512
aS'this'
p2513
aS'this'
p2514
aS'this'
p2515
ag2512
ag2511
ag2514
ag2515
ag2512
ag2514
ag2515
ag2514
ag2515
ag2515
aS'tree'
p2516
aS'tree'
p2517
aS'tree'
p2518
aS'tree'
p2519
aS'tree'
p2520
ag2517
ag2518
ag2519
ag2520
ag2518
ag2519
ag2520
ag2519
ag2520
ag2520
aS'seed'
p2521
aS'seed'
p2522
aS'seed'
p2523
aS'seed'
p2524
ag2522
ag2523
ag2524
ag2523
ag2524
ag2524
aS'root'
p2525
aS'root'
p2526
aS'root'
p2527
aS'root'
p2528
aS'root'
p2529
ag2526
ag2527
ag2528
ag2529
ag2527
ag2528
ag2529
ag2528
ag2529
ag2529
aS'heart'
p2530
aS'heart'
p2531
aS'heart'
p2532
aS'heart'
p2533
ag2531
ag2532
ag2533
ag2532
ag2533
ag2533
aS'give'
p2534
aS'give'
p2535
aS'give'
p2536
aS'give'
p2537
aS'give'
p2538
ag2535
ag2536
ag2537
ag2538
ag2536
ag2537
ag2538
ag2537
ag2538
ag2538
aS'say'
p2539
aS'say'
p2540
aS'say'
p2541
aS'say'
p2542
aS'say'
p2543
ag2540
ag2541
ag2542
ag2543
ag2541
ag2542
ag2543
ag2542
ag2543
ag2543
aS'woman'
p2544
aS'woman'
p2545
aS'woman'
p2546
aS'woman'
p2547
aS'woman'
p2548
ag2545
ag2546
ag2547
ag2548
ag2546
ag2547
ag2548
ag2547
ag2548
ag2548
aS'lie'
p2549
aS'lie'
p2550
aS'lie'
p2551
aS'lie'
p2552
aS'lie'
p2553
ag2550
ag2551
ag2552
ag2553
ag2551
ag2552
ag2553
ag2552
ag2553
ag2553
aS'sit'
p2554
aS'sit'
p2555
aS'sit'
p2556
aS'sit'
p2557
aS'sit'
p2558
ag2555
ag2556
ag2557
ag2558
ag2556
ag2557
ag2558
ag2557
ag2558
ag2558
aS'who'
p2559
aS'who'
p2560
aS'who'
p2561
aS'who'
p2562
aS'who'
p2563
ag2560
ag2561
ag2562
ag2563
ag2561
ag2562
ag2563
ag2562
ag2563
ag2563
aS'hot'
p2564
aS'hot'
p2565
aS'hot'
p2566
aS'hot'
p2567
aS'hot'
p2568
ag2565
ag2566
ag2567
ag2568
ag2566
ag2567
ag2568
ag2567
ag2568
ag2568
aS'belly'
p2569
aS'belly'
p2570
aS'belly'
p2571
aS'belly'
p2572
aS'belly'
p2573
ag2570
ag2569
ag2572
ag2573
ag2570
ag2572
ag2573
ag2572
ag2573
ag2573
aS'you'
p2574
aS'you'
p2575
aS'you'
p2576
aS'you'
p2577
aS'you'
p2578
ag2575
ag2576
ag2577
ag2574
ag2576
ag2577
ag2575
ag2577
ag2576
ag2577
aS'star'
p2579
aS'star'
p2580
aS'star'
p2581
aS'star'
p2582
aS'star'
p2583
ag2580
ag2581
ag2579
ag2583
ag2581
ag2580
ag2583
ag2581
ag2583
ag2583
aS'mountain'
p2584
aS'mountain'
p2585
ag2585
ag1858
ag1858
ag1858
ag1858
ag1858
ag1858
ag1858
ag1858
ag1858
ag1858
aS'drink'
p2586
aS'drink'
p2587
aS'drink'
p2588
ag2588
aS'drink'
p2589
ag2587
ag2586
ag2586
ag2589
ag2587
ag2587
ag2589
ag2418
ag2589
ag2589
aS'breasts'
p2590
aS'breasts'
p2591
aS'breasts'
p2592
aS'breasts'
p2593
aS'breasts'
p2594
ag2591
ag2592
ag2593
ag2594
ag2592
ag2593
ag2594
ag2593
ag2594
ag2594
aS'rain'
p2595
aS'water'
p2596
aS'rain'
p2597
aS'rain'
p2598
aS'rain'
p2599
ag2595
ag2597
ag2598
ag2599
ag2597
ag2598
ag2599
ag2598
ag2599
ag2599
aS'hand'
p2600
aS'hand'
p2601
aS'hand'
p2602
aS'hand'
p2603
aS'hand'
p2604
ag2601
ag2602
ag2603
ag2604
ag2602
ag2603
ag2604
ag2603
ag2604
ag2604
aS'mouth'
p2605
aS'mouth'
p2606
aS'mouth'
p2607
aS'mouth'
p2608
aS'mouth'
p2609
ag2606
ag2607
ag2608
ag2609
ag2607
ag2608
ag2609
ag2608
ag2609
ag2609
aS'blood'
p2610
aS'blood'
p2611
aS'blood'
p2612
aS'blood'
p2613
aS'blood'
p2614
ag2611
ag2612
ag2613
ag2614
ag2612
ag2613
ag2614
ag2613
ag2614
ag2614
aS'knee'
p2615
aS'knee'
p2616
aS'knee'
p2617
aS'knee'
p2618
aS'knee'
p2619
ag2616
ag2617
ag2618
ag2619
ag2617
ag2618
ag2619
ag2618
ag2619
ag2619
aS'man'
p2620
aS'man'
p2621
aS'man'
p2622
aS'man'
p2623
aS'man'
p2624
ag2621
ag2622
ag2620
ag2624
ag2622
ag2621
ag2624
ag2622
ag2624
ag2624
aS'neck'
p2625
aS'neck'
p2626
aS'neck'
p2627
aS'neck'
p2628
aS'neck'
p2629
ag2626
ag2627
ag2628
ag2629
ag2627
ag2628
ag2629
ag2628
ag2629
ag2629
aS'dog'
p2630
aS'dog'
p2631
aS'dog'
p2632
aS'dog'
p2633
aS'dog'
p2634
ag2631
ag2632
ag2633
ag2634
ag2632
ag2633
ag2634
ag2633
ag2634
ag2634
aS'tooth'
p2635
aS'tooth'
p2636
aS'tooth'
p2637
aS'tooth'
p2638
ag2636
ag2637
ag2638
ag2637
ag2638
ag2638
aS'person'
p2639
aS'person'
p2640
aS'person'
p2641
aS'person'
p2642
aS'person'
p2643
ag2640
ag2641
ag2642
ag2639
ag2641
ag2642
ag2640
ag2642
ag2641
ag2642
aS'green'
p2644
aS'green'
p2645
aS'green'
p2646
aS'green'
p2647
aS'green'
p2648
ag2645
ag2646
ag2647
ag2648
ag2646
ag2647
ag2648
ag2647
ag2648
ag2648
aS'egg'
p2649
aS'egg'
p2650
aS'egg'
p2651
aS'egg'
p2652
aS'egg'
p2653
ag2650
ag2651
ag2652
ag2653
ag2651
ag2652
ag2653
ag2652
ag2653
ag2653
aa.