(lp0
(lp1
S'all'
p2
ag2
ag2
ag2
ag2
ag2
ag2
ag2
ag2
ag2
ag2
ag2
ag2
ag2
ag2
ag2
ag2
ag2
ag2
ag2
ag2
ag2
ag2
ag2
ag2
ag2
ag2
ag2
ag2
ag2
ag2
ag2
ag2
ag2
ag2
ag2
ag2
ag2
ag2
ag2
ag2
ag2
ag2
ag2
ag2
ag2
ag2
ag2
ag2
ag2
ag2
ag2
ag2
ag2
ag2
ag2
ag2
ag2
ag2
ag2
ag2
ag2
ag2
ag2
ag2
ag2
ag2
ag2
ag2
ag2
ag2
ag2
ag2
ag2
ag2
ag2
ag2
ag2
ag2
ag2
ag2
ag2
ag2
ag2
ag2
ag2
ag2
ag2
ag2
ag2
ag2
ag2
ag2
ag2
ag2
ag2
ag2
ag2
ag2
ag2
ag2
ag2
ag2
ag2
ag2
ag2
ag2
ag2
ag2
ag2
ag2
ag2
ag2
ag2
ag2
ag2
ag2
ag2
ag2
ag2
ag2
ag2
ag2
ag2
ag2
ag2
ag2
ag2
ag2
ag2
ag2
ag2
ag2
ag2
ag2
ag2
ag2
ag2
ag2
ag2
ag2
ag2
ag2
ag2
ag2
ag2
ag2
ag2
ag2
ag2
ag2
ag2
ag2
ag2
ag2
ag2
ag2
ag2
ag2
ag2
ag2
ag2
ag2
ag2
ag2
ag2
ag2
ag2
ag2
ag2
ag2
ag2
ag2
ag2
ag2
ag2
ag2
ag2
ag2
ag2
ag2
ag2
ag2
ag2
ag2
ag2
ag2
ag2
ag2
ag2
ag2
ag2
ag2
ag2
ag2
ag2
ag2
ag2
ag2
ag2
ag2
ag2
ag2
ag2
ag2
ag2
ag2
ag2
ag2
ag2
ag2
ag2
ag2
ag2
ag2
ag2
ag2
ag2
ag2
ag2
ag2
ag2
ag2
ag2
ag2
ag2
ag2
ag2
ag2
ag2
ag2
aS'flesh'
p3
ag3
ag3
ag3
ag3
ag3
ag3
ag3
ag3
ag3
ag3
ag3
ag3
ag3
ag3
ag3
ag3
ag3
ag3
ag3
ag3
ag3
ag3
ag3
ag3
ag3
ag3
ag3
ag3
ag3
ag3
ag3
ag3
ag3
ag3
ag3
ag3
ag3
ag3
ag3
ag3
ag3
ag3
ag3
ag3
ag3
ag3
ag3
ag3
ag3
ag3
ag3
ag3
ag3
ag3
ag3
ag3
ag3
ag3
ag3
ag3
ag3
ag3
ag3
ag3
ag3
ag3
ag3
ag3
ag3
ag3
ag3
ag3
ag3
ag3
ag3
ag3
ag3
ag3
ag3
ag3
ag3
ag3
ag3
ag3
ag3
ag3
ag3
ag3
ag3
ag3
ag3
ag3
ag3
ag3
ag3
ag3
ag3
ag3
ag3
ag3
ag3
ag3
ag3
ag3
ag3
ag3
ag3
ag3
ag3
ag3
ag3
ag3
ag3
ag3
ag3
ag3
ag3
ag3
ag3
ag3
ag3
ag3
ag3
ag3
ag3
ag3
ag3
ag3
ag3
ag3
ag3
ag3
ag3
ag3
ag3
ag3
ag3
ag3
ag3
ag3
ag3
ag3
ag3
ag3
ag3
ag3
ag3
ag3
ag3
ag3
ag3
ag3
ag3
ag3
ag3
ag3
ag3
ag3
ag3
ag3
ag3
ag3
ag3
ag3
ag3
ag3
ag3
ag3
ag3
ag3
ag3
ag3
ag3
ag3
ag3
ag3
ag3
ag3
ag3
ag3
ag3
ag3
ag3
ag3
ag3
ag3
ag3
ag3
ag3
ag3
ag3
ag3
ag3
ag3
ag3
ag3
ag3
ag3
ag3
ag3
ag3
ag3
ag3
ag3
ag3
ag3
ag3
ag3
ag3
ag3
ag3
ag3
ag3
ag3
ag3
ag3
ag3
ag3
ag3
ag3
ag3
ag3
ag3
ag3
ag3
ag3
ag3
ag3
ag3
ag3
ag3
ag3
ag3
ag3
ag3
ag3
ag3
ag3
ag3
ag3
ag3
ag3
ag3
ag3
ag3
ag3
ag3
ag3
ag3
ag3
ag3
ag3
ag3
ag3
ag3
ag3
ag3
ag3
ag3
ag3
ag3
ag3
ag3
ag3
ag3
ag3
ag3
ag3
ag3
ag3
ag3
ag3
ag3
ag3
ag3
aS'yellow'
p4
ag4
ag4
ag4
ag4
ag4
ag4
ag4
ag4
ag4
ag4
ag4
ag4
ag4
ag4
ag4
ag4
ag4
ag4
ag4
ag4
ag4
ag4
ag4
ag4
ag4
ag4
ag4
ag4
ag4
ag4
ag4
ag4
ag4
ag4
ag4
ag4
ag4
ag4
ag4
ag4
ag4
ag4
ag4
ag4
ag4
ag4
ag4
ag4
ag4
ag4
ag4
ag4
ag4
ag4
ag4
ag4
ag4
ag4
ag4
ag4
ag4
ag4
ag4
ag4
ag4
ag4
ag4
ag4
ag4
ag4
ag4
ag4
ag4
ag4
ag4
ag4
ag4
ag4
ag4
ag4
ag4
ag4
ag4
ag4
ag4
ag4
ag4
ag4
ag4
ag4
ag4
ag4
ag4
ag4
ag4
ag4
ag4
ag4
ag4
ag4
ag4
ag4
ag4
ag4
ag4
ag4
ag4
ag4
ag4
ag4
ag4
ag4
ag4
ag4
ag4
ag4
ag4
ag4
ag4
ag4
ag4
ag4
ag4
ag4
ag4
ag4
ag4
ag4
ag4
ag4
ag4
ag4
ag4
ag4
ag4
ag4
ag4
ag4
ag4
ag4
ag4
ag4
ag4
ag4
ag4
ag4
ag4
ag4
ag4
ag4
ag4
ag4
ag4
ag4
ag4
ag4
ag4
ag4
ag4
ag4
ag4
ag4
ag4
ag4
ag4
ag4
ag4
ag4
ag4
ag4
ag4
ag4
ag4
ag4
ag4
ag4
ag4
ag4
ag4
ag4
ag4
ag4
ag4
ag4
ag4
ag4
ag4
ag4
ag4
ag4
ag4
ag4
ag4
ag4
ag4
ag4
ag4
ag4
ag4
ag4
ag4
ag4
ag4
ag4
ag4
ag4
ag4
ag4
ag4
ag4
ag4
ag4
ag4
ag4
ag4
ag4
ag4
ag4
ag4
ag4
ag4
ag4
ag4
ag4
ag4
ag4
ag4
ag4
ag4
ag4
ag4
ag4
ag4
ag4
ag4
ag4
ag4
ag4
ag4
ag4
ag4
ag4
ag4
ag4
ag4
ag4
ag4
ag4
ag4
ag4
ag4
ag4
ag4
ag4
ag4
ag4
ag4
ag4
ag4
ag4
ag4
ag4
ag4
ag4
ag4
ag4
ag4
ag4
ag4
ag4
ag4
ag4
ag4
ag4
ag4
aS'not'
p5
ag5
ag5
ag5
ag5
ag5
ag5
ag5
ag5
ag5
ag5
ag5
ag5
ag5
ag5
ag5
ag5
ag5
ag5
ag5
ag5
ag5
ag5
ag5
ag5
ag5
ag5
ag5
ag5
ag5
ag5
ag5
ag5
ag5
ag5
ag5
ag5
ag5
ag5
ag5
ag5
ag5
ag5
ag5
ag5
ag5
ag5
ag5
ag5
ag5
ag5
ag5
ag5
ag5
ag5
ag5
ag5
ag5
ag5
ag5
ag5
ag5
ag5
ag5
ag5
ag5
ag5
ag5
ag5
ag5
ag5
ag5
ag5
ag5
ag5
ag5
ag5
ag5
ag5
ag5
ag5
ag5
ag5
ag5
ag5
ag5
ag5
ag5
ag5
ag5
ag5
ag5
ag5
ag5
ag5
ag5
ag5
ag5
ag5
ag5
ag5
ag5
ag5
ag5
ag5
ag5
ag5
ag5
ag5
ag5
ag5
ag5
ag5
ag5
ag5
ag5
ag5
ag5
ag5
ag5
ag5
ag5
ag5
ag5
ag5
ag5
ag5
ag5
ag5
ag5
ag5
ag5
ag5
ag5
ag5
ag5
ag5
ag5
ag5
ag5
ag5
ag5
ag5
ag5
ag5
ag5
ag5
ag5
ag5
ag5
ag5
ag5
ag5
ag5
ag5
ag5
ag5
ag5
ag5
ag5
ag5
ag5
ag5
ag5
ag5
ag5
ag5
ag5
ag5
ag5
ag5
ag5
ag5
ag5
ag5
ag5
ag5
ag5
ag5
ag5
ag5
ag5
ag5
ag5
ag5
ag5
ag5
ag5
ag5
ag5
ag5
ag5
ag5
ag5
ag5
ag5
ag5
ag5
ag5
ag5
ag5
ag5
ag5
ag5
ag5
ag5
ag5
ag5
ag5
ag5
ag5
ag5
ag5
ag5
ag5
ag5
ag5
ag5
ag5
ag5
ag5
ag5
ag5
ag5
ag5
ag5
ag5
ag5
ag5
ag5
ag5
ag5
ag5
ag5
ag5
ag5
ag5
ag5
ag5
ag5
ag5
ag5
ag5
ag5
ag5
ag5
ag5
ag5
ag5
ag5
ag5
ag5
ag5
aS'sleep'
p6
ag6
ag6
ag6
ag6
ag6
ag6
ag6
ag6
ag6
ag6
ag6
ag6
ag6
ag6
ag6
ag6
ag6
ag6
ag6
ag6
ag6
ag6
ag6
ag6
ag6
ag6
ag6
ag6
ag6
ag6
ag6
ag6
ag6
ag6
ag6
ag6
ag6
ag6
ag6
ag6
ag6
ag6
ag6
ag6
ag6
ag6
ag6
ag6
ag6
ag6
ag6
ag6
ag6
ag6
ag6
ag6
ag6
ag6
ag6
ag6
ag6
ag6
ag6
ag6
ag6
ag6
ag6
ag6
ag6
ag6
ag6
ag6
ag6
ag6
ag6
ag6
ag6
ag6
ag6
ag6
ag6
ag6
ag6
ag6
ag6
ag6
ag6
ag6
ag6
ag6
ag6
ag6
ag6
ag6
ag6
ag6
ag6
ag6
ag6
ag6
ag6
ag6
ag6
ag6
ag6
ag6
ag6
ag6
ag6
ag6
ag6
ag6
ag6
ag6
ag6
ag6
ag6
ag6
ag6
ag6
ag6
ag6
ag6
ag6
ag6
ag6
ag6
ag6
ag6
ag6
ag6
ag6
ag6
ag6
ag6
ag6
ag6
ag6
ag6
ag6
ag6
ag6
ag6
ag6
ag6
ag6
ag6
ag6
ag6
ag6
ag6
ag6
ag6
ag6
ag6
ag6
ag6
ag6
ag6
ag6
ag6
ag6
ag6
ag6
ag6
ag6
ag6
ag6
ag6
ag6
ag6
ag6
ag6
ag6
ag6
ag6
ag6
ag6
ag6
ag6
ag6
ag6
ag6
ag6
ag6
ag6
ag6
ag6
ag6
ag6
ag6
ag6
ag6
ag6
ag6
ag6
ag6
ag6
ag6
ag6
ag6
ag6
ag6
ag6
ag6
ag6
ag6
ag6
ag6
ag6
ag6
ag6
ag6
ag6
ag6
ag6
ag6
ag6
ag6
ag6
ag6
ag6
ag6
ag6
ag6
ag6
ag6
ag6
ag6
ag6
ag6
ag6
ag6
ag6
ag6
ag6
ag6
ag6
ag6
ag6
ag6
ag6
ag6
ag6
ag6
ag6
ag6
ag6
ag6
ag6
ag6
ag6
aS'skin'
p7
ag7
ag7
ag7
ag7
ag7
ag7
ag7
ag7
ag7
ag7
ag7
ag7
ag7
ag7
ag7
ag7
ag7
ag7
ag7
ag7
ag7
ag7
ag7
ag7
ag7
ag7
ag7
ag7
ag7
ag7
ag7
ag7
ag7
ag7
ag7
ag7
ag7
ag7
ag7
ag7
ag7
ag7
ag7
ag7
ag7
ag7
ag7
ag7
ag7
ag7
ag7
ag7
ag7
ag7
ag7
ag7
ag7
ag7
ag7
ag7
ag7
ag7
ag7
ag7
ag7
ag7
ag7
ag7
ag7
ag7
ag7
ag7
ag7
ag7
ag7
ag7
ag7
ag7
ag7
ag7
ag7
ag7
ag7
ag7
ag7
ag7
ag7
ag7
ag7
ag7
ag7
ag7
ag7
ag7
ag7
ag7
ag7
ag7
ag7
ag7
ag7
ag7
ag7
ag7
ag7
ag7
ag7
ag7
ag7
ag7
ag7
ag7
ag7
ag7
ag7
ag7
ag7
ag7
ag7
ag7
ag7
ag7
ag7
ag7
ag7
ag7
ag7
ag7
ag7
ag7
ag7
ag7
ag7
ag7
ag7
ag7
ag7
ag7
ag7
ag7
ag7
ag7
ag7
ag7
ag7
ag7
ag7
ag7
ag7
ag7
ag7
ag7
ag7
ag7
ag7
ag7
ag7
ag7
ag7
ag7
ag7
ag7
ag7
ag7
ag7
ag7
ag7
ag7
ag7
ag7
ag7
ag7
ag7
ag7
ag7
ag7
ag7
ag7
ag7
ag7
ag7
ag7
ag7
ag7
ag7
ag7
ag7
ag7
ag7
ag7
ag7
ag7
ag7
ag7
ag7
ag7
ag7
ag7
ag7
ag7
ag7
ag7
ag7
ag7
ag7
ag7
ag7
ag7
ag7
ag7
ag7
ag7
ag7
ag7
ag7
ag7
ag7
ag7
ag7
ag7
ag7
ag7
ag7
ag7
ag7
ag7
ag7
ag7
ag7
ag7
ag7
ag7
ag7
ag7
ag7
ag7
ag7
ag7
ag7
ag7
ag7
ag7
ag7
ag7
ag7
ag7
ag7
ag7
ag7
ag7
ag7
ag7
ag7
ag7
ag7
ag7
ag7
ag7
ag7
ag7
ag7
ag7
ag7
ag7
ag7
ag7
ag7
ag7
ag7
ag7
ag7
ag7
ag7
ag7
ag7
aS'earth'
p8
ag8
ag8
ag8
ag8
ag8
ag8
ag8
ag8
ag8
ag8
ag8
ag8
ag8
ag8
ag8
ag8
ag8
ag8
ag8
ag8
ag8
ag8
ag8
ag8
ag8
ag8
ag8
ag8
ag8
ag8
ag8
ag8
ag8
ag8
ag8
ag8
ag8
ag8
ag8
ag8
ag8
ag8
ag8
ag8
ag8
ag8
ag8
ag8
ag8
ag8
ag8
ag8
ag8
ag8
ag8
ag8
ag8
ag8
ag8
ag8
ag8
ag8
ag8
ag8
ag8
ag8
ag8
ag8
ag8
ag8
ag8
ag8
ag8
ag8
ag8
ag8
ag8
ag8
ag8
ag8
ag8
ag8
ag8
ag8
ag8
ag8
ag8
ag8
ag8
ag8
ag8
ag8
ag8
ag8
ag8
ag8
ag8
ag8
ag8
ag8
ag8
ag8
ag8
ag8
ag8
ag8
ag8
ag8
ag8
ag8
ag8
ag8
ag8
ag8
ag8
ag8
ag8
ag8
ag8
ag8
ag8
ag8
ag8
ag8
ag8
ag8
ag8
ag8
ag8
ag8
ag8
ag8
ag8
ag8
ag8
ag8
ag8
ag8
ag8
ag8
ag8
ag8
ag8
ag8
ag8
ag8
ag8
ag8
ag8
ag8
ag8
ag8
ag8
ag8
ag8
ag8
ag8
ag8
ag8
ag8
ag8
ag8
ag8
ag8
ag8
ag8
ag8
ag8
ag8
ag8
ag8
ag8
ag8
ag8
ag8
ag8
ag8
ag8
ag8
ag8
ag8
ag8
ag8
ag8
ag8
ag8
ag8
ag8
ag8
ag8
ag8
ag8
ag8
ag8
ag8
ag8
ag8
ag8
ag8
ag8
ag8
ag8
ag8
ag8
ag8
ag8
ag8
ag8
ag8
ag8
ag8
ag8
ag8
ag8
ag8
ag8
ag8
ag8
ag8
ag8
ag8
ag8
ag8
ag8
ag8
ag8
ag8
ag8
ag8
ag8
ag8
ag8
ag8
ag8
ag8
ag8
ag8
ag8
ag8
ag8
ag8
ag8
ag8
ag8
ag8
ag8
ag8
ag8
ag8
ag8
ag8
ag8
aS'cold'
p9
ag9
ag9
ag9
ag9
ag9
ag9
ag9
ag9
ag9
ag9
ag9
ag9
ag9
ag9
ag9
ag9
ag9
ag9
ag9
ag9
ag9
ag9
ag9
ag9
ag9
ag9
ag9
ag9
ag9
ag9
ag9
ag9
ag9
ag9
ag9
ag9
ag9
ag9
ag9
ag9
ag9
ag9
ag9
ag9
ag9
ag9
ag9
ag9
ag9
ag9
ag9
ag9
ag9
ag9
ag9
ag9
ag9
ag9
ag9
ag9
ag9
ag9
ag9
ag9
ag9
ag9
ag9
ag9
ag9
ag9
ag9
ag9
ag9
ag9
ag9
ag9
ag9
ag9
ag9
ag9
ag9
ag9
ag9
ag9
ag9
ag9
ag9
ag9
ag9
ag9
ag9
ag9
ag9
ag9
ag9
ag9
ag9
ag9
ag9
ag9
ag9
ag9
ag9
ag9
ag9
ag9
ag9
ag9
ag9
ag9
ag9
ag9
ag9
ag9
ag9
ag9
ag9
ag9
ag9
ag9
ag9
ag9
ag9
ag9
ag9
ag9
ag9
ag9
ag9
ag9
ag9
ag9
ag9
ag9
ag9
ag9
ag9
ag9
ag9
ag9
ag9
ag9
ag9
ag9
ag9
ag9
ag9
ag9
ag9
ag9
ag9
ag9
ag9
ag9
ag9
ag9
ag9
ag9
ag9
ag9
ag9
ag9
ag9
ag9
ag9
ag9
ag9
ag9
ag9
ag9
ag9
ag9
ag9
ag9
ag9
ag9
ag9
ag9
ag9
ag9
ag9
ag9
ag9
ag9
ag9
ag9
ag9
ag9
ag9
ag9
ag9
ag9
ag9
ag9
ag9
ag9
ag9
ag9
ag9
ag9
ag9
ag9
ag9
ag9
ag9
ag9
ag9
ag9
ag9
ag9
ag9
ag9
ag9
ag9
ag9
ag9
ag9
ag9
ag9
ag9
ag9
ag9
ag9
ag9
ag9
ag9
ag9
ag9
ag9
ag9
ag9
ag9
ag9
ag9
ag9
ag9
ag9
ag9
ag9
ag9
ag9
ag9
ag9
ag9
ag9
ag9
ag9
ag9
ag9
ag9
ag9
ag9
ag9
ag9
ag9
ag9
ag9
ag9
ag9
ag9
ag9
ag9
ag9
ag9
ag9
ag9
ag9
ag9
ag9
ag9
ag9
ag9
ag9
ag9
ag9
aS'eat'
p10
ag10
ag10
ag10
ag10
ag10
ag10
ag10
ag10
ag10
ag10
ag10
ag10
ag10
ag10
ag10
ag10
ag10
ag10
ag10
ag10
ag10
ag10
ag10
ag10
ag10
aS'stand'
p11
ag10
ag10
ag10
ag10
ag10
ag10
ag10
ag10
ag10
ag10
ag11
ag10
ag11
ag10
ag10
ag10
ag10
ag10
ag10
ag10
ag10
ag10
ag10
ag10
ag10
ag10
ag10
ag10
ag10
ag10
ag10
ag10
ag10
ag10
ag10
ag10
ag10
ag10
ag10
ag10
ag10
ag10
ag10
ag10
ag10
ag10
ag10
ag10
ag10
ag10
ag10
ag10
ag10
ag10
ag10
ag10
ag10
ag10
ag10
ag10
ag10
ag10
ag10
ag10
ag10
ag10
ag10
ag10
ag10
ag10
ag10
ag10
ag10
ag10
ag10
ag10
ag10
ag10
ag10
ag10
ag10
ag10
ag10
ag10
ag10
ag10
ag10
ag10
ag10
ag10
ag10
ag10
ag10
ag10
ag10
ag10
ag10
ag10
ag10
ag10
ag11
ag10
ag11
ag10
ag10
ag10
ag10
ag10
ag10
ag10
ag10
ag10
ag10
ag10
ag10
ag10
ag10
ag10
ag10
ag10
ag10
ag10
ag10
ag10
ag10
ag10
ag10
ag10
ag10
ag10
ag10
ag10
ag10
ag10
ag10
ag10
ag10
ag10
ag10
ag10
ag10
ag10
ag10
ag10
ag10
ag10
ag10
ag10
ag10
ag10
ag10
ag10
ag10
ag10
ag10
ag10
ag10
ag10
ag10
ag10
aS'hair'
p12
ag10
ag10
ag10
ag10
ag10
ag10
ag10
ag12
ag10
ag10
ag10
ag10
ag10
ag10
ag10
ag10
ag10
ag12
ag10
ag10
ag10
ag10
ag10
ag10
ag10
ag10
ag10
ag10
ag10
ag10
ag10
ag10
ag10
ag10
ag10
ag10
ag10
ag10
ag10
ag10
ag10
ag10
ag10
ag10
ag10
ag10
ag10
ag10
ag10
ag10
ag10
ag11
ag10
ag10
ag10
ag10
ag10
ag10
ag10
ag10
ag10
ag10
ag10
ag10
ag10
aS'tail'
p13
ag13
ag13
ag13
ag13
ag13
ag13
ag13
ag13
ag13
ag13
ag13
ag13
ag13
ag13
ag13
ag13
ag13
ag13
ag13
ag13
ag13
ag13
ag13
ag13
ag13
ag13
ag13
ag13
ag13
ag13
ag13
ag13
ag13
ag13
ag13
ag13
ag13
ag13
ag13
ag13
ag13
ag13
ag13
ag13
ag13
ag13
ag13
ag13
ag13
ag13
ag13
ag13
ag13
ag13
ag13
ag13
ag13
ag13
ag13
ag13
ag13
ag13
ag13
ag13
ag13
ag13
ag13
ag13
ag13
ag13
ag13
ag13
ag13
ag13
ag13
ag13
ag13
ag13
ag13
ag13
ag13
ag13
ag13
ag13
ag13
ag13
ag13
ag13
ag13
ag13
ag13
ag13
ag13
ag13
ag13
ag13
ag13
ag13
ag13
ag13
ag13
ag13
ag13
ag13
ag13
ag13
ag13
ag13
ag13
ag13
ag13
ag13
ag13
ag13
ag13
ag13
ag13
ag13
ag13
ag13
ag13
ag13
ag13
ag13
ag13
ag13
ag13
ag13
ag13
ag13
ag13
ag13
ag13
ag13
ag13
ag13
ag13
ag13
ag13
ag13
ag13
ag13
ag13
ag13
ag13
ag13
ag13
ag13
ag13
ag13
ag13
ag13
ag13
ag13
ag13
ag13
ag13
ag13
ag13
ag13
ag13
ag13
ag13
ag13
ag13
ag13
ag13
ag13
ag13
ag13
ag13
ag13
ag13
ag13
ag13
ag13
ag13
ag13
ag13
ag13
ag13
ag13
ag13
ag13
ag13
ag13
ag13
ag13
ag13
ag13
ag13
ag13
ag13
ag13
ag13
ag13
ag13
ag13
ag13
ag13
ag13
ag13
ag13
ag13
ag13
ag13
ag13
ag13
ag13
ag13
ag13
ag13
ag13
ag13
ag13
ag13
ag13
ag13
ag13
ag13
ag13
ag13
ag13
ag13
ag13
ag13
ag13
ag13
ag13
ag13
ag13
ag13
ag13
ag13
ag13
ag13
ag13
ag13
ag13
ag13
ag13
ag13
ag13
ag13
ag13
ag13
ag13
ag13
ag13
ag13
ag13
ag13
ag13
ag13
ag13
ag13
ag13
ag13
ag13
ag13
ag13
ag13
ag13
ag13
ag13
ag13
ag13
ag13
ag13
ag13
ag13
ag13
ag13
ag13
ag13
aS'black'
p14
ag14
ag14
ag14
ag14
ag14
ag14
ag14
ag14
ag14
ag14
ag14
ag14
ag14
ag14
ag14
ag14
ag14
ag14
ag14
ag14
ag14
ag14
ag14
ag14
ag14
ag14
ag14
ag14
ag14
ag14
ag14
ag14
ag14
ag14
ag14
ag14
ag14
ag14
ag14
ag14
ag14
ag14
ag14
ag14
ag14
ag14
ag14
ag14
ag14
ag14
ag14
ag14
ag14
ag14
ag14
ag14
ag14
ag14
ag14
ag14
ag14
ag14
ag14
ag14
ag14
ag14
ag14
ag14
ag14
ag14
ag14
ag14
ag14
ag14
ag14
ag14
ag14
ag14
ag14
ag14
ag14
ag14
ag14
ag14
ag14
ag14
ag14
ag14
ag14
ag14
ag14
ag14
ag14
ag14
ag14
ag14
ag14
ag14
ag14
ag14
ag14
ag14
ag14
ag14
ag14
ag14
ag14
ag14
ag14
ag14
ag14
ag14
ag14
ag14
ag14
ag14
ag14
ag14
ag14
ag14
ag14
ag14
ag14
ag14
ag14
ag14
ag14
ag14
ag14
ag14
ag14
ag14
ag14
ag14
ag14
ag14
ag14
ag14
ag14
ag14
ag14
ag14
ag14
ag14
ag14
ag14
ag14
ag14
ag14
ag14
ag14
ag14
ag14
ag14
ag14
ag14
ag14
ag14
ag14
ag14
ag14
ag14
ag14
ag14
ag14
ag14
ag14
ag14
ag14
ag14
ag14
ag14
ag14
ag14
ag14
ag14
ag14
ag14
ag14
ag14
ag14
ag14
ag14
ag14
ag14
ag14
ag14
ag14
ag14
ag14
ag14
ag14
ag14
ag14
ag14
ag14
ag14
ag14
ag14
ag14
ag14
ag14
ag14
ag14
ag14
ag14
ag14
ag14
ag14
ag14
ag14
ag14
ag14
ag14
ag14
ag14
ag14
ag14
ag14
ag14
ag14
ag14
ag14
ag14
ag14
ag14
ag14
ag14
ag14
ag14
ag14
ag14
ag14
ag14
ag14
ag14
ag14
ag14
ag14
ag14
ag14
ag14
ag14
ag14
ag14
ag14
ag14
ag14
ag14
ag14
ag14
ag14
ag14
ag14
ag14
ag14
ag14
ag14
ag14
ag14
ag14
ag14
ag14
ag14
ag14
ag14
ag14
ag14
ag14
ag14
ag14
ag14
ag14
ag14
ag14
aS'swim'
p15
ag15
ag15
ag15
ag15
ag15
ag15
ag15
ag15
ag15
ag15
ag15
ag15
ag15
ag15
ag15
ag15
ag15
ag15
ag15
ag15
ag15
ag15
ag15
ag15
ag15
ag15
ag15
ag15
ag15
ag15
ag15
ag15
ag15
ag15
ag15
ag15
ag15
ag15
ag15
ag15
ag15
ag15
ag15
ag15
ag15
ag15
ag15
ag15
ag15
ag15
ag15
ag15
ag15
ag15
ag15
ag15
ag15
ag15
ag15
ag15
ag15
ag15
ag15
ag15
ag15
ag15
ag15
ag15
ag15
ag15
ag15
ag15
ag15
ag15
ag15
ag15
ag15
ag15
ag15
ag15
ag15
ag15
ag15
ag15
ag15
ag15
ag15
ag15
ag15
ag15
ag15
ag15
ag15
ag15
ag15
ag15
ag15
ag15
ag15
ag15
ag15
ag15
ag15
ag15
ag15
ag15
ag15
ag15
ag15
ag15
ag15
ag15
ag15
ag15
ag15
ag15
ag15
ag15
ag15
ag15
ag15
ag15
ag15
ag15
ag15
ag15
ag15
ag15
ag15
ag15
ag15
ag15
ag15
ag15
ag15
ag15
ag15
ag15
ag15
ag15
ag15
ag15
ag15
ag15
ag15
ag15
ag15
ag15
ag15
ag15
ag15
ag15
ag15
ag15
ag15
ag15
ag15
ag15
ag15
ag15
ag15
ag15
ag15
ag15
ag15
ag15
ag15
ag15
ag15
ag15
ag15
ag15
ag15
ag15
ag15
ag15
ag15
ag15
ag15
ag15
ag15
ag15
ag15
ag15
ag15
ag15
ag15
ag15
ag15
ag15
ag15
ag15
ag15
ag15
ag15
ag15
ag15
ag15
ag15
ag15
ag15
ag15
ag15
ag15
ag15
ag15
ag15
ag15
ag15
aS'good'
p16
ag16
ag16
ag16
ag16
ag16
ag16
ag16
ag16
ag16
ag16
ag16
ag16
ag16
ag16
ag16
ag16
ag16
ag16
ag16
ag16
ag16
ag16
ag16
ag16
ag16
ag16
ag16
ag16
ag16
ag16
ag16
ag16
ag16
ag16
ag16
ag16
ag16
ag16
ag16
ag16
ag16
ag16
ag16
ag16
ag16
ag16
ag16
ag16
ag16
ag16
ag16
ag16
ag16
ag16
ag16
ag16
ag16
ag16
ag16
ag16
ag16
ag16
ag16
ag16
ag16
ag16
ag16
ag16
ag16
ag16
ag16
ag16
ag16
ag16
ag16
ag16
ag16
ag16
ag16
ag16
ag16
ag16
ag16
ag16
ag16
ag16
ag16
ag16
ag16
ag16
ag16
ag16
ag16
ag16
ag16
ag16
ag16
ag16
ag16
ag16
ag16
ag16
ag16
ag16
ag16
ag16
ag16
ag16
ag16
ag16
ag16
ag16
ag16
ag16
ag16
ag16
ag16
ag16
ag16
ag16
ag16
ag16
ag16
ag16
ag16
ag16
ag16
ag16
ag16
ag16
ag16
ag16
ag16
ag16
ag16
ag16
ag16
ag16
ag16
ag16
ag16
ag16
ag16
ag16
ag16
ag16
ag16
ag16
ag16
ag16
ag16
ag16
ag16
ag16
ag16
ag16
ag16
ag16
ag16
ag16
ag16
ag16
ag16
ag16
ag16
ag16
ag16
ag16
ag16
ag16
ag16
ag16
ag16
ag16
ag16
ag16
ag16
ag16
ag16
ag16
ag16
ag16
ag16
ag16
ag16
ag16
ag16
ag16
ag16
ag16
ag16
ag16
ag16
ag16
ag16
ag16
ag16
ag16
ag16
ag16
ag16
ag16
ag16
ag16
ag16
ag16
ag16
ag16
ag16
ag16
ag16
ag16
ag16
ag16
ag16
ag16
ag16
ag16
ag16
ag16
ag16
ag16
ag16
ag16
ag16
ag16
ag16
ag16
ag16
ag16
ag16
ag16
ag16
ag16
ag16
ag16
ag16
ag16
ag16
ag16
ag16
ag16
ag16
ag16
ag16
ag16
ag16
ag16
ag16
ag16
ag16
ag16
aS'big'
p17
ag17
ag17
ag17
ag17
ag17
ag17
ag17
ag17
ag17
ag17
ag17
ag17
ag17
ag17
ag17
ag17
ag17
ag17
ag17
ag17
ag17
ag17
ag17
ag17
ag17
ag17
ag17
ag17
ag17
ag17
ag17
ag17
ag17
ag17
ag17
ag17
ag17
ag17
ag17
ag17
ag17
ag17
ag17
ag17
ag17
ag17
ag17
ag17
ag17
ag17
ag17
ag17
ag17
ag17
ag17
ag17
ag17
ag17
ag17
ag17
ag17
ag17
ag17
ag17
ag17
ag17
ag17
ag17
ag17
ag17
ag17
ag17
ag17
ag17
ag17
ag17
ag17
ag17
ag17
ag17
ag17
ag17
ag17
ag17
ag17
ag17
ag17
ag17
ag17
ag17
ag17
ag17
ag17
ag17
ag17
ag17
ag17
ag17
ag17
ag17
ag17
ag17
ag17
ag17
ag17
ag17
ag17
ag17
ag17
ag17
ag17
ag17
ag17
ag17
ag17
ag17
ag17
ag17
ag17
ag17
ag17
ag17
ag17
ag17
ag17
ag17
ag17
ag17
ag5
ag17
ag17
ag17
ag17
ag17
ag17
ag17
ag17
ag17
ag17
ag17
ag17
ag17
ag17
ag17
ag17
ag17
ag17
ag17
ag17
ag17
ag17
ag17
ag17
ag17
ag17
ag17
ag17
ag17
ag17
ag17
ag17
ag17
ag17
ag17
ag17
ag17
ag17
ag17
ag17
ag17
ag17
ag17
ag17
ag17
ag17
ag17
ag17
ag17
ag17
ag17
ag17
ag17
ag17
ag17
ag17
ag17
ag17
ag17
ag17
ag17
ag17
ag17
ag17
ag17
ag17
ag17
ag17
ag17
ag17
ag17
ag17
ag17
ag17
ag17
ag17
ag17
ag17
ag17
ag17
ag17
ag17
ag17
ag17
ag17
ag17
ag17
ag17
ag17
ag17
ag17
ag17
ag17
ag17
ag17
ag17
ag17
ag17
ag17
ag17
ag17
ag17
ag17
ag17
ag17
ag17
ag17
ag17
ag17
ag17
ag17
ag17
ag17
ag17
ag17
ag17
ag17
ag17
ag17
ag17
ag17
ag17
ag17
ag17
ag17
ag17
ag17
ag17
ag17
ag17
ag17
ag17
ag17
ag17
ag17
ag17
ag17
ag17
ag17
ag17
ag17
ag17
ag17
ag17
ag17
ag17
aS'know'
p18
ag18
ag18
ag18
ag18
ag18
ag18
ag18
ag18
ag18
ag18
ag18
ag18
ag18
ag18
ag18
ag18
ag18
ag18
ag18
ag18
ag18
ag18
ag18
ag18
ag18
ag18
ag18
ag18
ag18
ag18
ag18
ag18
ag18
ag18
ag18
ag18
ag18
ag18
ag18
ag18
ag18
ag18
ag18
ag18
ag18
ag18
ag18
ag18
ag18
ag18
ag18
ag18
ag18
ag18
ag18
ag18
ag18
ag18
ag18
ag18
ag18
ag18
ag18
ag18
ag18
ag18
ag18
ag18
ag18
ag18
ag18
ag18
ag18
ag18
ag18
ag18
ag18
ag18
ag18
ag18
ag18
ag18
ag18
ag18
ag18
ag18
ag18
ag18
ag18
ag18
ag18
ag18
ag18
ag18
ag18
ag18
ag18
ag18
ag18
ag18
ag18
ag18
ag18
ag18
ag18
ag18
ag18
ag18
ag18
ag18
ag18
ag18
ag18
ag18
ag18
ag18
ag18
ag18
ag18
ag18
ag18
ag18
ag18
ag18
ag18
ag18
ag18
ag18
ag18
ag18
ag18
ag18
ag18
ag18
ag18
ag18
ag18
ag18
ag18
ag18
ag18
ag18
ag18
ag18
ag18
ag18
ag18
ag18
ag18
ag18
ag18
ag18
ag18
ag18
ag18
ag18
ag18
ag18
ag18
ag18
ag18
ag18
ag18
ag18
ag18
ag18
ag18
ag18
ag18
ag18
ag18
ag18
ag18
ag18
ag18
ag18
ag18
ag18
ag18
ag18
ag18
ag18
ag18
ag18
ag18
ag18
ag18
ag18
ag18
ag18
ag18
ag18
ag18
ag18
ag18
ag18
ag18
ag18
ag18
ag18
ag18
ag18
ag18
ag18
ag18
ag18
ag18
ag18
ag18
ag18
ag18
ag18
ag18
ag18
ag18
ag18
ag18
ag18
ag18
ag18
ag18
ag18
ag18
ag18
ag18
ag18
ag18
ag18
ag18
ag18
ag18
ag18
ag18
ag18
ag18
ag18
ag18
ag18
ag18
ag18
ag18
ag18
ag18
ag18
ag18
ag18
ag18
ag18
ag18
ag18
ag18
ag18
aS'foot'
p19
ag19
ag19
ag19
ag19
ag19
ag19
ag19
ag19
ag19
ag19
ag19
ag19
ag19
ag19
ag19
ag19
ag19
ag19
ag19
ag19
ag19
ag19
ag19
ag19
ag19
ag19
ag19
ag19
ag19
ag19
ag19
ag19
ag19
ag19
ag19
ag19
ag19
ag19
ag19
ag19
ag19
ag19
ag19
ag19
ag19
ag19
ag19
ag19
ag19
ag19
ag19
ag19
ag19
ag19
ag19
ag19
ag19
ag19
ag19
ag19
ag19
ag19
ag19
ag19
ag19
ag19
ag19
ag19
ag19
ag19
ag19
ag19
ag19
ag19
ag19
ag19
ag19
ag19
ag19
ag19
ag19
ag19
ag19
ag19
ag19
ag19
ag19
ag19
ag19
ag19
ag19
ag19
ag19
ag19
ag19
ag19
ag19
ag19
ag19
ag19
ag19
ag19
ag19
ag19
ag19
ag19
ag19
ag19
ag19
ag19
ag19
ag19
ag19
ag19
ag19
ag19
ag19
ag19
ag19
ag19
ag19
ag19
ag19
ag19
ag19
ag19
ag19
ag19
ag19
ag19
ag19
ag19
ag19
ag19
ag19
ag19
ag19
ag19
ag19
ag19
ag19
ag19
ag19
ag19
ag19
ag19
ag19
ag19
ag19
ag19
ag19
ag19
ag19
ag19
ag19
ag19
ag19
ag19
ag19
ag19
ag19
ag19
ag19
ag19
ag19
ag19
ag19
ag19
ag19
ag19
ag19
ag19
ag19
ag19
ag19
ag19
ag19
ag19
ag19
ag19
ag19
ag19
ag19
ag19
ag19
ag19
ag19
ag19
ag19
ag19
ag19
ag19
ag19
ag19
ag19
ag19
ag19
ag19
ag19
ag19
ag19
ag19
ag19
ag19
ag19
ag19
ag19
ag19
ag19
ag19
ag19
ag19
ag19
ag19
ag19
ag19
ag19
ag19
ag19
ag19
ag19
ag19
ag19
ag19
ag19
ag19
ag19
ag19
ag19
ag19
ag19
ag19
ag19
ag19
ag19
ag19
ag19
ag19
ag19
ag19
ag19
ag19
ag19
ag19
ag19
ag19
ag19
ag19
ag19
ag19
ag19
ag19
ag19
ag19
ag19
ag19
ag19
ag19
ag19
ag19
ag19
ag19
ag19
ag19
ag19
ag19
ag19
ag19
ag19
ag19
ag19
ag19
ag19
ag19
ag19
aS'walk'
p20
ag20
ag20
ag20
ag20
ag20
ag20
ag20
ag20
ag20
ag20
ag20
ag20
ag20
ag20
ag20
ag20
ag20
ag20
ag20
ag20
ag20
ag20
ag20
ag20
ag20
ag20
ag20
ag20
ag20
ag20
ag20
ag20
ag20
ag20
ag20
ag20
ag20
ag20
ag20
ag20
ag20
ag20
ag20
ag20
ag20
ag20
ag20
ag20
ag20
ag20
ag20
ag20
ag20
ag20
ag20
ag20
ag20
ag20
ag20
ag20
ag20
ag20
ag20
ag20
ag20
ag20
ag20
ag20
ag20
ag20
ag20
ag20
ag20
ag20
ag20
ag20
ag20
ag20
ag20
ag20
ag20
ag20
ag20
ag20
ag20
ag20
ag20
ag20
ag20
ag20
ag20
ag20
ag20
ag20
ag20
ag20
ag20
ag20
ag20
ag20
ag20
ag20
ag20
ag20
ag20
ag20
ag20
ag20
ag20
ag20
ag20
ag20
ag20
ag20
ag20
ag20
ag20
ag20
ag20
ag20
ag20
ag20
ag20
ag20
ag20
ag20
ag20
ag20
ag20
ag20
ag20
ag20
ag20
ag20
ag20
ag20
ag20
ag20
ag20
ag20
ag20
ag20
ag20
ag20
ag20
ag20
ag20
ag20
ag20
ag20
ag20
ag20
ag20
ag20
ag20
ag20
ag20
ag20
ag20
ag20
ag20
ag20
ag20
ag20
ag20
ag20
ag20
ag20
ag20
ag20
ag20
ag20
ag20
ag20
ag20
ag20
ag20
ag20
ag20
ag20
ag20
ag20
ag20
ag20
ag20
ag20
ag20
ag20
ag20
ag20
ag20
ag20
ag20
ag20
ag20
ag20
ag20
ag20
ag20
ag20
ag20
ag20
ag20
ag20
ag20
ag20
ag20
ag20
ag20
ag20
ag20
ag20
ag20
ag20
ag20
ag20
ag20
ag20
ag20
ag20
ag20
ag20
ag20
ag20
ag20
ag20
ag20
ag20
ag20
ag20
ag20
ag20
ag20
ag20
ag20
ag20
ag20
ag20
ag20
ag20
ag20
ag20
ag20
ag20
ag20
ag20
ag20
ag20
ag20
ag20
ag20
ag20
aS'name'
p21
ag21
ag21
ag21
ag21
ag21
ag21
ag21
ag21
ag21
ag21
ag21
ag21
ag21
ag21
ag21
ag21
ag21
ag21
ag21
ag21
ag21
ag21
ag21
ag21
ag21
ag21
ag21
ag21
ag21
ag21
ag21
ag21
ag21
ag21
ag21
ag21
ag21
ag21
ag21
ag21
ag21
ag21
ag21
ag21
ag21
ag21
ag21
ag21
ag21
ag21
ag21
ag21
ag21
ag21
ag21
ag21
ag21
ag21
ag21
ag21
ag21
ag21
ag21
ag21
ag21
ag21
ag21
ag21
ag21
ag21
ag21
ag21
ag21
ag21
ag21
ag21
ag21
ag21
ag21
ag21
ag21
ag21
ag21
ag21
ag21
ag21
ag21
ag21
ag21
ag21
ag21
ag21
ag21
ag21
ag21
ag21
ag21
ag21
ag21
ag21
ag21
ag21
ag21
ag21
ag21
ag21
ag21
ag21
ag21
ag21
ag21
ag21
ag21
ag21
ag21
ag21
ag21
ag21
ag21
ag21
ag21
ag21
ag21
ag21
ag21
ag21
ag21
ag21
ag21
ag21
ag21
ag21
ag21
ag21
ag21
ag21
ag21
ag21
ag21
ag21
ag21
ag21
ag21
ag21
ag21
ag21
ag21
ag21
ag21
ag21
ag21
ag21
ag21
ag21
ag21
ag21
ag21
ag21
ag21
ag21
ag21
ag21
ag21
ag21
ag21
ag21
ag21
ag21
ag21
ag21
ag21
ag21
ag21
ag21
ag21
ag21
ag21
ag21
ag21
ag21
ag21
ag21
ag21
ag21
ag21
ag21
ag21
ag21
ag21
ag21
ag21
ag21
ag21
ag21
ag21
ag21
ag21
ag21
ag21
ag21
ag21
ag21
ag21
ag21
ag21
ag21
ag21
ag21
ag21
ag21
ag21
ag21
ag21
ag21
ag21
ag21
ag21
ag21
ag21
ag21
ag21
ag21
ag21
ag21
ag21
ag21
ag21
ag21
ag21
ag21
ag21
ag21
ag21
ag21
ag21
ag21
ag21
ag21
ag21
ag21
ag21
ag21
ag21
ag21
ag21
ag21
ag21
ag21
ag21
ag21
ag21
ag21
ag21
ag21
ag21
ag21
ag21
ag21
ag21
ag21
ag21
ag21
ag21
ag21
ag21
ag21
ag21
ag21
ag21
ag21
ag21
ag21
ag21
ag21
ag21
aS'die'
p22
ag22
ag22
ag22
ag22
ag22
ag22
ag22
ag22
ag22
ag22
ag22
ag22
ag22
ag22
ag22
ag22
ag22
ag22
ag22
ag22
ag22
ag22
ag22
ag22
ag22
ag22
ag22
ag22
ag22
ag22
ag22
ag22
ag22
ag22
ag22
ag22
ag22
ag22
ag22
ag22
ag22
ag22
ag22
ag22
ag22
ag22
ag22
ag22
ag22
ag22
ag22
ag22
ag22
ag22
ag22
ag22
ag22
ag22
ag22
ag22
ag22
ag22
ag22
ag22
ag22
ag22
ag22
ag22
ag22
ag22
ag22
ag22
ag22
ag22
ag22
ag22
ag22
ag22
ag22
ag22
ag22
ag22
ag22
ag22
ag22
ag22
ag22
ag22
ag22
ag22
ag22
ag22
ag22
ag22
ag22
ag22
ag22
ag22
ag22
ag22
ag22
ag22
ag22
ag22
ag22
ag22
ag22
ag22
ag22
ag22
ag22
ag22
ag22
ag22
ag22
ag22
ag22
ag22
ag22
ag22
ag22
ag22
ag22
ag22
ag22
ag22
ag22
ag22
ag22
ag22
ag22
ag22
ag22
ag22
ag22
ag22
ag22
ag22
ag22
ag22
ag22
ag22
ag22
ag22
ag22
ag22
ag22
ag22
ag22
ag22
ag22
ag22
ag22
ag22
ag22
ag22
ag22
ag22
ag22
ag22
ag22
ag22
ag22
ag22
ag22
ag22
ag22
ag22
ag22
ag22
ag22
ag22
ag22
ag22
ag22
ag22
ag22
ag22
ag22
ag22
ag22
ag22
ag22
ag22
ag22
ag22
ag22
ag22
ag22
ag22
ag22
ag22
ag22
ag22
ag22
ag22
ag22
ag22
ag22
ag22
ag22
ag22
ag22
ag22
ag22
ag22
ag22
ag22
ag22
ag22
ag22
ag22
ag22
ag22
ag22
ag22
ag22
ag22
ag22
ag22
ag22
ag22
ag22
ag22
ag22
ag22
ag22
ag22
ag22
ag22
ag22
ag22
ag22
ag22
ag22
ag22
ag22
ag22
ag22
ag22
ag22
ag22
ag22
ag22
ag22
ag22
ag22
ag22
ag22
ag22
ag22
ag22
aS'sand'
p23
ag23
ag23
ag23
ag23
ag23
ag23
ag23
ag23
ag23
ag23
ag23
ag23
ag23
ag23
ag23
ag23
ag23
ag23
ag23
ag23
ag23
ag23
ag23
ag23
ag23
ag23
ag23
ag23
ag23
ag23
ag23
ag23
ag23
ag23
ag23
ag23
ag23
ag23
ag23
ag23
ag23
ag23
ag23
ag23
ag23
ag23
ag23
ag23
ag23
ag23
ag23
ag23
ag23
ag23
ag23
ag23
ag23
ag23
ag23
ag23
ag23
ag23
ag23
ag23
ag23
ag23
ag23
ag23
ag23
ag23
ag23
ag23
ag23
ag23
ag23
ag23
ag23
ag23
ag23
ag23
ag23
ag23
ag23
ag23
ag23
ag23
ag23
ag23
ag23
ag23
ag23
ag23
ag23
ag23
ag23
ag23
ag23
ag23
ag23
ag23
ag23
ag23
ag23
ag23
ag23
ag23
ag23
ag23
ag23
ag23
ag23
ag23
ag23
ag23
ag23
ag23
ag23
ag23
ag23
ag23
ag23
ag23
ag23
ag23
ag23
ag23
ag23
ag23
ag23
ag23
ag23
ag23
ag23
ag23
ag23
ag23
ag23
ag23
ag23
ag23
ag23
ag23
ag23
ag23
ag23
ag23
ag23
ag23
ag23
ag23
ag23
ag23
ag23
ag23
ag23
ag23
ag23
ag23
ag23
ag23
ag23
ag23
ag23
ag23
ag23
ag23
ag23
ag23
ag23
ag23
ag23
ag23
ag23
ag23
ag23
ag23
ag23
ag23
ag23
ag23
ag23
ag23
ag23
ag23
ag23
ag23
ag23
ag23
ag23
ag23
ag23
ag23
ag23
ag23
ag23
ag23
ag23
ag23
ag23
ag23
ag23
ag23
ag23
ag23
ag23
ag23
ag23
ag23
ag23
ag23
ag23
ag23
ag23
ag23
ag23
ag23
ag23
ag23
ag23
ag23
ag23
ag23
ag23
ag23
ag23
ag23
ag23
ag23
ag23
ag23
ag23
ag23
ag23
ag23
ag23
ag23
ag23
ag23
ag23
ag23
ag23
ag23
ag23
ag23
ag23
ag23
ag23
ag23
ag23
ag23
ag23
ag23
ag23
ag23
ag23
ag23
ag23
ag23
ag23
ag23
ag23
ag23
ag23
ag23
ag23
ag23
ag23
ag23
ag23
ag23
ag23
ag23
ag23
ag23
ag23
aS'nose'
p24
ag24
ag24
ag24
ag24
ag24
ag24
ag24
ag24
ag24
ag24
ag24
ag24
ag24
ag24
ag24
ag24
ag24
ag24
ag24
ag24
ag24
ag24
ag24
ag24
ag24
ag24
ag24
ag24
ag24
ag24
ag24
ag24
ag24
ag24
ag24
ag24
ag24
ag24
ag24
ag24
ag24
ag24
ag24
ag24
ag24
ag24
ag24
ag24
ag24
ag24
ag24
ag24
ag24
ag24
ag24
ag24
ag24
ag24
ag24
ag24
ag24
ag24
ag24
ag24
ag24
ag24
ag24
ag24
ag24
ag24
ag24
ag24
ag24
ag24
ag24
ag24
ag24
ag24
ag24
ag24
ag24
ag24
ag24
ag24
ag24
ag22
ag24
ag24
ag22
ag24
ag24
ag24
ag22
ag24
ag24
ag24
ag24
ag24
ag22
ag24
ag24
ag22
ag24
ag24
ag24
ag24
ag22
ag24
ag24
ag24
ag22
ag24
ag24
ag24
ag24
ag24
ag22
ag24
ag24
ag22
ag24
ag24
ag24
ag24
ag24
ag24
ag24
ag24
ag24
ag24
ag24
ag24
ag24
ag24
ag24
ag24
ag24
ag24
ag24
ag24
ag24
ag24
ag24
ag24
ag24
ag24
ag24
ag24
ag24
ag24
ag24
ag24
ag24
ag24
ag24
ag24
ag24
ag24
ag22
ag24
ag24
ag24
ag24
ag24
ag22
ag24
ag24
ag22
ag24
ag24
ag24
ag24
ag24
ag24
ag24
ag24
ag24
ag24
ag24
ag24
ag24
ag24
ag24
ag24
ag24
ag24
ag24
ag24
ag24
ag24
ag24
ag24
ag24
ag24
ag24
ag24
ag24
ag24
ag24
ag24
ag24
ag24
ag24
ag24
ag24
ag24
ag24
ag24
ag24
ag24
ag24
ag24
ag24
ag24
ag22
ag24
ag24
ag22
ag24
ag24
ag24
ag24
ag24
ag24
ag24
ag24
ag24
ag24
ag24
ag24
ag24
ag24
ag24
ag24
ag24
ag24
ag24
ag24
ag24
ag24
ag24
ag24
ag24
ag24
ag24
ag24
ag24
ag24
ag24
ag24
ag24
ag24
ag24
ag24
ag24
ag24
ag24
ag24
ag24
ag24
ag24
ag24
ag22
ag24
ag24
ag24
ag24
ag24
ag24
ag24
ag24
ag24
ag24
ag24
ag24
aS'night'
p25
ag25
ag25
ag25
ag25
ag25
ag25
ag25
ag25
ag25
ag25
ag25
ag25
ag25
ag25
ag25
ag25
ag25
ag25
ag25
ag25
ag25
ag25
ag25
ag25
ag25
ag25
ag25
ag25
ag25
ag25
ag25
ag25
ag25
ag25
ag25
ag25
ag25
ag25
ag25
ag25
ag25
ag25
ag25
ag25
ag25
ag25
ag25
ag25
ag25
ag25
ag25
ag25
ag25
ag25
ag25
ag25
ag25
ag25
ag25
ag25
ag25
ag25
ag25
ag25
ag25
ag25
ag25
ag25
ag25
ag25
ag25
ag25
ag25
ag25
ag25
ag25
ag25
ag25
ag25
ag25
ag25
ag25
ag25
ag25
ag25
ag25
ag25
ag25
ag25
ag25
ag25
ag25
ag25
ag25
ag25
ag25
ag25
ag25
ag25
ag25
ag25
ag25
ag25
ag25
ag25
ag25
ag25
ag25
ag25
ag25
ag25
ag25
ag25
ag25
ag25
ag25
ag25
ag25
ag25
ag25
ag25
ag25
ag25
ag25
ag25
ag25
ag25
ag25
ag25
ag25
ag25
ag25
ag25
ag25
ag25
ag25
ag25
ag25
ag25
ag25
ag25
ag25
ag25
ag25
ag25
ag25
ag25
ag25
ag25
ag25
ag25
ag25
ag25
ag25
ag25
ag25
ag25
ag25
ag25
ag25
ag25
ag25
ag25
ag25
ag25
ag25
ag25
ag25
ag25
ag25
ag25
ag25
ag25
ag25
ag25
ag25
ag25
ag25
ag25
ag25
ag25
ag25
ag25
ag25
ag25
ag25
ag25
ag25
ag25
ag25
ag25
ag25
ag25
ag25
ag25
ag25
ag25
ag25
ag25
ag25
ag25
ag25
ag25
ag25
ag25
ag25
ag25
ag25
ag25
ag25
ag25
ag25
ag25
ag25
ag25
ag25
ag25
ag25
ag25
ag25
ag25
ag25
ag25
ag25
ag25
ag25
ag25
ag25
ag25
ag25
ag25
ag25
ag25
ag25
ag25
ag25
ag25
ag25
ag25
ag25
ag25
ag25
ag25
ag25
ag25
ag25
ag25
ag25
ag25
ag25
ag25
ag25
ag25
ag25
ag25
ag25
ag25
ag25
ag25
ag25
ag25
ag25
ag25
ag25
ag25
ag25
ag25
ag25
ag25
ag25
ag25
ag25
ag25
ag25
ag25
aS'small'
p26
ag26
ag26
ag26
ag26
ag26
ag26
ag26
ag26
ag26
ag26
ag26
ag26
ag26
ag26
ag26
ag26
ag26
ag26
ag26
ag26
ag26
ag26
ag26
ag26
ag26
ag26
ag26
ag26
ag26
ag26
ag26
ag26
ag26
ag26
ag26
ag26
ag26
ag26
ag26
ag26
ag26
ag26
ag26
ag26
ag26
ag26
ag26
ag26
ag26
ag26
ag26
ag26
ag26
ag26
ag26
ag26
ag26
ag26
ag26
ag26
ag26
ag26
ag26
ag26
ag26
ag26
ag26
ag26
ag26
ag26
ag26
ag26
ag26
ag26
ag26
ag26
ag26
ag26
ag26
ag26
ag26
ag26
ag26
ag26
ag26
ag26
ag26
ag26
ag26
ag26
ag26
ag26
ag26
ag26
ag26
ag26
ag26
ag26
ag26
ag26
ag26
ag26
ag26
ag26
ag26
ag26
ag26
ag26
ag26
ag26
ag26
ag26
ag26
ag26
ag26
ag26
ag26
ag26
ag26
ag26
ag26
ag26
ag26
ag26
ag26
ag26
ag26
ag26
ag26
ag26
ag26
ag26
ag26
ag26
ag26
ag26
ag26
ag26
ag26
ag26
ag26
ag26
ag26
ag26
ag26
ag26
ag26
ag26
ag26
ag26
ag26
ag26
ag26
ag26
ag26
ag26
ag26
ag26
ag26
ag26
ag26
ag26
ag26
ag26
ag26
ag26
ag26
ag26
ag26
ag26
ag26
ag26
ag26
ag26
ag26
ag26
ag26
ag26
ag26
ag26
ag26
ag26
ag26
ag26
ag26
ag26
ag26
ag26
ag26
ag26
ag26
ag26
ag26
ag26
ag26
ag26
ag26
ag26
ag26
ag26
ag26
ag26
ag26
ag26
ag26
ag26
ag26
ag26
ag26
ag26
ag26
ag26
ag26
ag26
ag26
ag26
ag26
ag26
ag26
ag26
ag26
ag26
ag26
ag26
ag26
ag26
ag26
ag26
ag26
ag26
ag26
ag26
ag26
ag26
ag26
ag26
ag26
ag26
ag26
ag26
ag26
ag26
ag26
ag26
ag26
ag26
ag26
ag26
ag26
ag26
ag26
ag26
ag26
ag26
ag26
ag26
ag26
ag26
ag26
ag26
ag26
ag26
ag26
ag26
ag26
ag26
ag26
ag26
ag26
ag26
ag26
ag26
ag26
ag26
ag26
aS'claw'
p27
ag27
ag27
ag27
ag27
ag27
ag27
ag27
ag27
ag27
ag27
ag27
ag27
ag27
ag27
ag27
ag27
ag27
ag27
ag27
ag27
ag27
ag27
ag27
ag27
ag27
ag27
ag27
ag27
ag27
ag27
ag27
ag27
ag27
ag27
ag27
ag27
ag27
ag27
ag27
ag27
ag27
ag27
ag27
ag27
ag27
ag27
ag27
ag27
ag27
ag27
ag27
ag27
ag27
ag27
ag27
ag27
ag27
ag27
ag27
ag27
ag27
ag27
ag27
ag27
ag27
ag27
ag27
ag27
ag27
ag27
ag27
ag27
ag27
ag27
ag27
ag27
ag27
ag27
ag27
ag27
ag27
ag27
ag27
ag27
ag27
ag27
ag27
ag27
ag27
ag27
ag27
ag27
ag27
ag27
ag27
ag27
ag27
ag27
ag27
ag27
ag27
ag27
ag27
ag27
ag27
ag27
ag27
ag27
ag27
ag27
ag27
ag27
ag27
ag27
ag27
ag27
ag27
ag27
ag27
ag27
ag27
ag27
ag27
ag27
ag27
ag27
ag27
ag27
ag27
ag27
ag27
ag27
ag27
ag27
ag27
ag27
ag27
ag27
ag27
ag27
ag27
ag27
ag27
ag27
ag27
ag27
ag27
ag27
ag27
ag27
ag27
ag27
ag27
ag27
ag27
ag27
ag27
ag27
ag27
ag27
ag27
ag27
ag27
ag27
ag27
ag27
ag27
ag27
ag27
ag27
ag27
ag27
ag27
ag27
ag27
ag27
ag27
ag27
ag27
ag27
ag27
ag27
ag27
ag27
ag27
ag27
ag27
ag27
ag27
ag27
ag27
ag27
ag27
ag27
ag27
ag27
ag27
ag27
ag27
ag27
ag27
ag27
ag27
ag27
ag27
ag27
ag27
ag27
ag27
ag27
ag27
ag27
ag27
ag27
ag27
ag27
ag27
ag27
ag27
ag27
ag27
ag27
ag27
ag27
ag27
ag27
ag27
ag27
ag27
ag27
aS'round'
p28
ag28
ag28
ag28
ag28
ag28
ag28
ag28
ag28
ag28
ag28
ag28
ag28
ag28
ag28
ag28
ag28
ag28
ag28
ag28
ag28
ag28
ag28
ag28
ag28
ag28
ag28
ag28
ag28
ag28
ag28
ag28
ag28
ag28
ag28
ag28
ag28
ag28
ag28
ag28
ag28
ag28
ag28
ag28
ag28
ag28
ag28
ag28
ag28
ag28
ag28
ag28
ag28
ag28
ag28
ag28
ag28
ag28
ag28
ag28
ag28
ag28
ag28
ag28
ag28
ag28
ag28
ag28
ag28
ag28
ag28
ag28
ag28
ag28
ag28
ag28
ag28
ag28
ag28
ag28
ag28
ag28
ag28
ag28
ag28
ag28
ag28
ag28
ag28
ag28
ag28
ag28
ag28
ag28
ag28
ag28
ag28
ag28
ag28
ag28
ag28
ag28
ag28
ag28
ag28
ag28
ag28
ag28
ag28
ag28
ag28
ag28
ag28
ag28
ag28
ag28
ag28
ag28
ag28
ag28
ag28
ag28
ag28
ag28
ag28
ag28
ag28
ag28
ag28
ag28
ag28
ag28
ag28
ag28
ag28
ag28
ag28
ag28
ag28
ag28
ag28
ag28
ag28
ag28
ag28
ag28
ag28
ag28
ag28
ag28
ag28
ag28
ag28
ag28
ag28
ag28
ag28
ag28
ag28
ag28
ag28
ag28
ag28
ag28
ag28
ag28
ag28
ag28
ag28
ag28
ag28
ag28
ag28
ag28
ag28
ag28
ag28
ag28
ag28
ag28
ag28
ag28
ag28
ag28
ag28
ag28
ag28
ag28
ag28
ag28
ag28
ag28
ag28
ag28
ag28
ag28
ag28
ag28
ag28
ag28
ag28
ag28
ag28
ag28
ag28
ag28
ag28
ag28
ag28
ag28
ag28
ag28
ag28
ag28
ag28
ag28
ag28
ag28
ag28
ag28
ag28
ag28
ag28
ag28
ag28
ag28
ag28
ag28
ag28
ag28
ag28
ag28
ag28
ag28
ag28
ag28
ag28
ag28
ag28
ag28
ag28
ag28
ag28
ag28
ag28
ag28
ag28
ag28
ag28
ag28
ag28
ag28
ag28
aS'bone'
p29
ag29
ag29
ag29
ag29
ag29
ag29
ag29
ag29
ag29
ag29
ag29
ag29
ag29
ag29
ag29
ag29
ag29
ag29
ag29
ag29
ag29
ag29
ag29
ag29
ag29
ag29
ag29
ag29
ag29
ag29
ag29
ag29
ag29
ag29
ag29
ag29
ag29
ag29
ag29
ag29
ag29
ag29
ag29
ag29
ag29
ag29
ag29
ag29
ag29
ag29
ag29
ag29
ag29
ag29
ag29
ag29
ag29
ag29
ag29
ag29
ag29
ag29
ag29
ag29
ag29
ag29
ag29
ag29
ag29
ag29
ag29
ag29
ag29
ag29
ag29
ag29
ag29
ag29
ag29
ag29
ag29
ag29
ag29
ag29
ag29
ag29
ag29
ag29
ag29
ag29
ag29
ag29
ag29
ag29
ag29
ag29
ag29
ag29
ag29
ag29
ag29
ag29
ag29
ag29
ag29
ag29
ag29
ag29
ag29
ag29
ag29
ag29
ag29
ag29
ag29
ag29
ag29
ag29
ag29
ag29
ag29
ag29
ag29
ag29
ag29
ag29
ag29
ag29
ag29
ag29
ag29
ag29
ag29
ag29
ag29
ag29
ag29
ag29
ag29
ag29
ag29
ag29
ag29
ag29
ag29
ag29
ag29
ag29
ag29
ag29
ag29
ag29
ag29
ag29
ag29
ag29
ag29
ag29
ag29
ag29
ag29
ag29
ag29
ag29
ag29
ag29
ag29
ag29
ag29
ag29
ag29
ag29
ag29
ag29
ag29
ag29
ag29
ag29
ag29
ag29
ag29
ag29
ag29
ag29
ag29
ag29
ag29
ag29
ag29
ag29
ag29
ag29
ag29
ag29
ag29
ag29
ag29
ag29
ag29
ag29
ag29
ag29
ag29
ag29
ag29
ag29
ag29
ag29
ag29
ag29
ag29
ag29
ag29
ag29
ag29
ag29
ag29
ag29
ag29
ag29
ag29
ag29
ag29
ag29
ag29
ag29
ag29
ag29
ag29
ag29
ag29
ag29
ag29
ag29
ag29
ag29
ag29
ag29
ag29
ag29
ag29
ag29
ag29
ag29
ag29
ag29
ag29
ag29
ag29
ag29
ag29
ag29
ag29
ag29
ag29
ag29
ag29
ag29
ag29
ag29
ag29
ag29
ag29
ag29
ag29
ag29
ag29
ag29
ag29
ag29
ag29
ag29
ag29
ag29
ag29
aS'kill'
p30
ag30
ag30
ag30
ag30
ag30
ag30
ag30
ag30
ag30
ag30
ag30
ag30
ag30
ag30
ag30
ag30
ag30
ag30
ag30
ag30
ag30
ag30
ag30
ag30
ag30
ag30
ag30
ag30
ag30
ag30
ag30
ag30
ag30
ag30
ag30
ag30
ag30
ag30
ag30
ag30
ag30
ag30
ag30
ag30
ag30
ag30
ag30
ag30
ag30
ag30
ag30
ag30
ag30
ag30
ag30
ag30
ag30
ag30
ag30
ag30
ag30
ag30
ag30
ag30
ag30
ag30
ag30
ag30
ag30
ag30
ag30
ag30
ag30
ag30
ag30
ag30
ag30
ag30
ag30
ag30
ag30
ag30
ag30
ag30
ag30
ag30
ag30
ag30
ag30
ag30
ag30
ag30
ag30
ag30
ag30
ag30
ag30
ag30
ag30
ag30
ag30
ag30
ag30
ag30
ag30
ag30
ag30
ag30
ag30
ag30
ag30
ag30
ag30
ag30
ag30
ag30
ag30
ag30
ag30
ag30
ag30
ag30
ag30
ag30
ag30
ag30
ag30
ag30
ag30
ag30
ag30
ag30
ag30
ag30
ag30
ag30
ag30
ag30
ag30
ag30
ag30
ag30
ag30
ag30
ag30
ag30
ag30
ag30
ag30
ag30
ag30
ag30
ag30
ag30
ag30
ag30
ag30
ag30
ag30
ag30
ag30
ag30
ag30
ag30
ag30
ag30
ag30
ag30
ag30
ag30
ag30
ag30
ag30
ag30
ag30
ag30
ag30
ag30
ag30
ag30
ag30
ag30
ag30
ag30
ag30
ag30
ag30
ag30
ag30
ag30
ag30
ag30
ag30
ag30
ag30
ag30
ag30
ag30
ag30
ag30
ag30
ag30
ag30
ag30
ag30
ag30
ag30
ag30
ag30
ag30
ag30
ag30
ag30
ag30
ag30
ag30
ag30
ag30
ag30
ag30
ag30
ag30
ag30
ag30
ag30
ag30
ag30
ag30
ag30
ag30
ag30
ag30
ag30
ag30
ag30
ag30
ag30
ag30
ag30
ag30
ag30
ag30
ag30
ag30
ag30
ag30
ag30
ag30
ag30
ag30
ag30
ag30
aS'fish'
p31
ag31
ag31
ag31
ag31
ag31
ag31
ag31
ag31
ag31
ag31
ag31
ag31
ag31
ag31
ag31
ag31
ag31
ag31
ag31
ag31
ag31
ag31
ag31
ag31
ag31
ag31
ag31
ag31
ag31
ag31
ag31
ag31
ag31
ag31
ag31
ag31
ag31
ag31
ag31
ag31
ag31
ag31
ag31
ag31
ag31
ag31
ag31
ag31
ag31
ag31
ag31
ag31
ag31
ag31
ag31
ag31
ag31
ag31
ag31
ag31
ag31
ag31
ag31
ag31
ag31
ag31
ag31
ag31
ag31
ag31
ag31
ag31
ag31
ag31
ag31
ag31
ag31
ag31
ag31
ag31
ag31
ag31
ag31
ag31
ag31
ag31
ag31
ag31
ag31
ag31
ag31
ag31
ag31
ag31
ag31
ag31
ag31
ag31
ag31
ag31
ag31
ag31
ag31
ag31
ag31
ag31
ag31
ag31
ag31
ag31
ag31
ag31
ag31
ag31
ag31
ag31
ag31
ag31
ag31
ag31
ag31
ag31
ag31
ag31
ag31
ag31
ag31
ag31
ag31
ag31
ag31
ag31
ag31
ag31
ag31
ag31
ag31
ag31
ag31
ag31
ag31
ag31
ag31
ag31
ag31
ag31
ag31
ag31
ag31
ag31
ag31
ag31
ag31
ag31
ag31
ag31
ag31
ag31
ag31
ag31
ag31
ag31
ag31
ag31
ag31
ag31
ag31
ag31
ag31
ag31
ag31
ag31
ag31
ag31
ag31
ag31
ag31
ag31
ag31
ag31
ag31
ag31
ag31
ag31
ag31
ag31
ag31
ag31
ag31
ag31
ag31
ag31
ag31
ag31
ag31
ag31
ag31
ag31
ag31
ag31
ag31
ag31
ag31
ag31
ag31
ag31
ag31
ag31
ag31
ag31
ag31
ag31
ag31
ag31
ag31
ag31
ag31
ag31
ag31
ag31
ag31
ag31
ag31
ag31
ag31
ag31
ag31
ag31
ag31
ag31
ag31
ag31
ag31
ag31
ag31
ag31
ag31
ag31
ag31
ag31
ag31
ag31
ag31
ag31
ag31
ag31
ag31
ag31
ag31
ag31
ag31
ag31
ag31
ag31
ag31
ag31
ag31
ag31
ag31
ag31
ag31
ag31
ag31
ag31
ag31
ag31
ag31
ag31
ag31
ag31
ag31
ag31
ag31
ag31
ag31
aS'horn'
p32
ag32
ag32
ag32
ag32
ag32
ag32
ag32
ag32
ag32
ag32
ag32
ag32
ag32
ag32
ag32
ag32
ag32
ag32
ag32
ag32
ag32
ag32
ag32
ag32
ag32
ag32
ag32
ag32
ag32
ag32
ag32
ag32
ag32
ag32
ag32
ag32
ag32
ag32
ag32
ag32
ag32
ag32
ag32
ag32
ag32
ag32
ag32
ag32
ag32
ag32
ag32
ag32
ag32
ag32
ag32
ag32
ag32
ag32
ag32
ag32
ag32
ag32
ag32
ag32
ag32
ag32
ag32
ag32
ag32
ag32
ag32
ag32
ag32
ag32
ag32
ag32
ag32
ag32
ag32
ag32
ag32
ag32
ag32
ag32
ag32
ag32
ag32
ag32
ag32
ag32
ag32
ag32
ag32
ag32
ag32
ag32
ag32
ag32
ag32
ag32
ag32
ag32
ag32
ag32
ag32
ag32
ag32
ag32
ag32
ag32
ag32
ag32
ag32
ag32
ag32
ag32
ag32
ag32
ag32
ag32
ag32
ag32
ag32
ag32
ag32
ag32
ag32
ag32
ag32
ag32
ag32
ag32
ag32
ag32
ag32
ag32
ag32
ag32
ag32
ag32
ag32
ag32
ag32
ag32
ag32
ag32
ag32
ag32
ag32
ag32
ag32
ag32
ag32
ag32
ag32
ag32
ag32
ag32
ag32
ag32
ag32
ag32
ag32
ag32
ag32
ag32
ag32
ag32
ag32
ag32
ag12
ag12
ag12
ag12
ag12
ag12
ag12
ag12
ag12
ag12
ag12
ag12
ag12
ag12
ag12
ag12
ag12
ag12
ag12
ag12
ag12
ag12
ag12
ag12
ag12
ag12
ag12
ag12
ag12
ag12
ag12
ag12
ag12
ag12
ag12
ag12
ag12
ag12
ag12
ag12
ag12
ag12
ag12
ag12
ag12
ag12
ag12
ag12
ag12
ag12
ag12
ag12
ag12
ag12
ag12
ag12
ag12
ag12
ag12
ag12
ag12
ag12
ag12
ag12
ag12
ag12
ag12
ag12
ag12
ag12
ag12
ag12
ag12
ag12
ag12
ag12
ag12
ag12
ag12
ag12
ag12
ag12
ag12
ag12
ag12
ag12
ag12
ag12
ag12
ag12
ag12
ag12
ag12
ag12
ag12
ag12
ag12
ag12
ag12
ag12
ag12
ag12
ag12
ag12
ag12
ag12
ag12
ag12
ag12
ag12
ag12
ag12
ag12
ag12
ag12
ag12
ag12
ag12
ag12
ag12
ag12
ag12
ag12
ag12
ag12
ag12
ag12
ag12
ag12
ag12
ag12
ag12
ag12
ag12
ag12
ag12
ag12
ag12
ag12
ag12
ag12
ag12
ag12
ag12
ag12
ag12
ag12
ag12
ag12
ag12
ag12
ag12
ag12
ag12
ag12
ag12
ag12
ag12
ag12
ag12
ag12
ag12
ag12
ag12
ag12
ag12
ag12
ag12
ag12
ag12
ag12
ag12
ag12
ag12
ag12
ag12
ag12
ag12
ag12
ag12
ag12
ag12
ag12
ag12
ag12
ag12
ag12
ag12
ag12
ag12
ag12
ag12
ag12
ag12
ag12
ag12
ag12
ag12
ag12
ag12
ag12
ag12
ag12
ag12
ag12
ag12
ag12
ag12
ag12
ag12
ag12
ag12
ag12
ag12
ag12
ag12
ag12
ag12
ag12
ag12
ag12
ag12
ag12
ag12
ag12
ag12
ag12
ag12
ag12
ag12
ag12
ag12
ag12
ag12
ag12
ag12
ag12
ag12
ag12
ag12
ag12
ag12
ag12
ag12
ag12
ag12
ag12
ag12
ag12
ag12
ag12
ag12
ag12
ag12
ag12
ag12
ag12
ag12
ag12
ag12
ag12
ag12
ag12
ag12
ag12
ag12
ag12
ag12
ag12
ag12
ag12
ag12
ag12
ag12
ag12
ag12
aS'see'
p33
ag33
ag33
ag33
ag33
ag33
ag33
ag33
ag33
ag33
ag33
ag33
ag33
ag33
ag33
ag33
ag33
ag33
ag33
ag33
ag33
ag33
ag33
ag33
ag33
ag33
ag33
ag33
ag33
ag33
ag33
ag33
ag33
ag33
ag33
ag33
ag33
ag33
ag33
ag33
ag33
ag33
ag33
ag33
ag33
ag33
ag33
ag33
ag33
ag33
ag33
ag33
ag33
ag33
ag33
ag33
ag33
ag33
ag33
ag33
ag33
ag33
ag33
ag33
ag33
ag33
ag33
ag33
ag33
ag33
ag33
ag33
ag33
ag33
ag33
ag33
ag33
ag33
ag33
ag33
ag33
ag33
ag33
ag33
ag33
ag33
ag33
ag33
ag33
ag33
ag33
ag33
ag33
ag33
ag33
ag33
ag33
ag33
ag33
ag33
ag33
ag33
ag33
ag33
ag33
ag33
ag33
ag33
ag33
ag33
ag33
ag33
ag33
ag33
ag33
ag33
ag33
ag33
ag33
ag33
ag33
ag33
ag33
ag33
ag33
ag33
ag33
ag33
ag33
ag33
ag33
ag33
ag31
ag33
ag33
ag33
ag33
ag33
ag33
ag33
ag33
ag33
ag33
ag33
ag33
ag33
ag33
ag33
ag33
ag33
ag33
ag33
ag33
ag33
ag33
ag33
ag33
ag33
ag33
ag33
ag33
ag33
ag33
ag33
ag33
ag33
ag33
ag33
ag33
ag33
ag33
ag33
ag33
ag33
ag33
ag33
ag33
ag33
ag33
ag33
ag33
ag33
ag33
ag33
ag33
ag33
ag33
ag33
ag33
ag33
ag33
ag33
ag33
ag33
ag33
ag33
ag33
ag33
ag33
ag33
ag33
ag33
ag33
ag33
ag33
ag33
ag33
ag33
ag33
ag33
ag33
ag33
ag33
ag33
ag33
ag33
ag33
ag33
ag33
ag33
ag33
ag33
ag33
ag33
ag33
ag33
ag33
ag33
ag33
ag33
ag33
aS'full'
p34
ag34
ag34
ag34
ag34
ag34
ag34
ag34
ag34
ag34
ag34
ag34
ag34
ag34
ag34
ag34
ag34
ag34
ag34
ag34
ag34
ag34
ag34
ag34
ag34
ag34
ag34
ag34
ag34
ag34
ag34
ag34
ag34
ag34
ag34
ag34
ag34
ag34
ag34
ag34
ag34
ag34
ag34
ag34
ag34
ag34
ag34
ag34
ag34
ag34
ag34
ag34
ag34
ag34
ag34
ag34
ag34
ag34
ag34
ag34
ag34
ag34
ag34
ag34
ag34
ag34
ag34
ag34
ag34
ag34
ag34
ag34
ag34
ag34
ag34
ag34
ag34
ag34
ag34
ag34
ag34
ag34
ag34
ag34
ag34
ag34
ag34
ag34
ag34
ag34
ag34
ag34
ag34
ag34
ag34
ag34
ag34
ag34
ag34
ag34
ag34
ag34
ag34
ag34
ag34
ag34
ag34
ag34
ag34
ag34
ag34
ag34
ag34
ag34
ag34
ag34
ag34
ag34
ag34
ag34
ag34
ag34
ag34
ag34
ag34
ag34
ag34
ag34
ag34
ag34
ag34
ag34
ag34
ag34
ag34
ag34
ag34
ag34
ag34
ag34
ag34
ag34
ag34
ag34
ag34
ag34
ag34
ag34
ag34
ag34
ag34
ag34
ag34
ag34
ag34
ag34
ag34
ag34
ag34
ag34
ag34
ag34
ag34
ag34
ag34
ag34
ag34
ag34
ag34
ag34
ag34
ag34
ag34
ag34
ag34
ag34
ag17
ag34
ag34
ag34
ag34
ag34
ag34
ag34
ag34
ag34
ag34
ag34
ag34
ag34
ag34
ag34
ag34
ag34
ag34
ag34
ag34
ag34
ag34
ag34
ag34
ag34
ag34
ag34
ag34
ag34
ag34
ag34
ag34
ag34
ag34
ag34
ag34
ag34
ag34
ag34
ag34
ag34
ag34
ag34
ag34
ag34
ag34
ag34
ag34
ag34
ag34
ag34
ag34
ag34
ag34
ag34
ag34
ag34
ag34
ag34
ag34
ag34
ag34
ag34
ag34
ag34
ag34
ag34
ag34
ag34
ag34
ag34
ag34
ag34
ag34
ag34
ag34
ag34
ag34
ag34
ag34
ag34
ag34
ag34
ag34
ag34
ag34
ag34
ag34
ag34
ag34
ag34
ag34
ag34
ag34
ag34
ag34
ag34
ag34
ag34
aS'bark'
p35
ag35
ag35
ag35
ag35
ag35
ag35
ag35
ag35
ag35
ag35
ag35
ag35
ag35
ag35
ag35
ag35
ag35
ag35
ag35
ag35
ag7
ag35
ag7
ag35
ag35
ag35
ag35
ag7
ag7
ag35
ag35
ag35
ag35
ag35
ag7
ag35
ag35
ag35
ag35
ag35
ag35
ag35
ag35
ag35
ag35
ag35
ag35
ag35
ag35
ag35
ag35
ag35
ag35
ag35
ag35
ag35
ag35
ag7
ag35
ag35
ag35
ag35
ag7
ag7
ag35
ag35
ag35
ag35
ag35
ag7
ag35
ag35
ag35
ag35
ag35
ag35
ag35
ag35
ag35
ag35
ag35
ag35
ag35
ag35
ag35
ag35
ag35
ag35
ag35
ag35
ag35
ag35
ag35
ag7
ag7
ag35
ag35
ag35
ag35
ag35
ag7
ag35
ag35
ag35
ag35
ag35
ag35
ag35
ag35
ag35
ag35
ag35
ag35
ag35
ag35
ag35
ag35
ag35
ag35
ag35
ag35
ag35
ag35
ag35
ag35
ag35
ag35
ag35
ag35
ag35
ag35
ag35
ag35
ag35
ag35
ag35
ag35
ag35
ag35
ag35
ag35
ag35
ag35
ag35
ag35
ag35
ag35
ag35
ag35
ag35
ag35
ag35
ag35
ag35
ag7
ag35
ag35
ag35
ag35
ag35
ag7
ag35
ag35
ag35
ag35
ag35
ag35
ag35
ag35
ag7
ag35
ag35
ag35
ag35
ag35
ag35
ag35
ag35
ag35
ag35
ag35
ag35
ag35
ag35
ag35
ag35
ag35
ag35
ag35
ag35
ag35
ag35
ag35
ag35
ag35
ag35
ag35
ag35
ag35
ag35
ag35
ag35
ag35
ag35
ag35
ag35
ag35
ag35
ag35
aS'what'
p36
ag36
ag36
ag36
ag36
ag36
ag36
ag36
ag36
ag36
ag36
ag36
ag36
ag36
ag36
ag36
ag36
ag36
ag36
ag36
ag36
ag36
ag36
ag36
ag36
ag36
ag36
ag36
ag36
ag36
ag36
ag36
ag36
ag36
ag36
ag36
ag36
ag36
ag36
ag36
ag36
ag36
ag36
ag36
ag36
ag36
ag36
ag36
ag36
ag36
ag36
ag36
ag36
ag36
ag36
ag36
ag36
ag36
ag36
ag36
ag36
ag36
ag36
ag36
ag36
ag36
ag36
ag36
ag36
ag36
ag36
ag36
ag36
ag36
ag36
ag36
ag36
ag36
ag36
ag36
ag36
ag36
ag36
ag36
ag36
ag36
ag36
ag36
ag36
ag36
ag36
ag36
ag36
ag36
ag36
ag36
ag36
ag36
ag36
ag36
ag36
ag36
ag36
ag36
ag36
ag36
ag36
ag36
ag36
ag36
ag36
ag36
ag36
ag36
ag36
ag36
ag36
ag36
ag36
ag36
ag36
ag36
ag36
ag36
ag36
ag36
ag36
ag36
ag36
ag36
ag36
ag36
ag36
ag36
ag36
ag36
ag36
ag36
ag36
ag36
ag36
ag36
ag36
ag36
ag36
ag36
ag36
ag36
ag36
ag36
ag36
ag36
ag36
ag36
ag36
ag36
ag36
ag36
ag36
ag36
ag36
ag36
ag36
ag36
ag36
ag36
ag36
ag36
ag36
ag36
ag36
ag36
ag36
ag36
ag36
ag36
ag36
ag36
ag36
ag36
ag36
ag36
ag36
ag36
ag36
ag36
ag36
ag36
ag36
ag36
ag36
ag36
ag36
ag36
ag36
ag36
ag36
ag36
ag36
ag36
ag36
ag36
ag36
ag36
ag36
ag36
ag36
ag36
ag36
ag36
ag36
ag36
ag36
ag36
ag36
ag36
ag36
ag36
ag36
ag36
ag36
ag36
ag36
ag36
ag36
ag36
ag36
ag36
ag36
ag36
ag36
aS'white'
p37
aS'leaf'
p38
ag38
ag38
ag37
ag37
ag37
ag38
ag38
ag38
ag38
ag37
ag38
ag38
ag38
ag37
ag38
ag38
ag38
ag37
ag38
ag37
ag38
ag38
ag38
ag38
ag37
ag37
ag37
ag38
ag38
ag38
ag38
ag37
ag38
ag38
ag38
ag37
ag38
ag38
ag38
ag37
ag38
ag37
ag38
ag38
ag38
ag38
ag38
ag38
ag38
ag38
ag38
ag38
ag38
ag38
ag38
ag38
ag38
ag38
ag38
ag38
ag38
ag38
ag38
ag38
ag38
ag38
ag38
ag38
ag38
ag38
ag38
ag38
ag38
ag38
ag38
ag38
ag38
ag38
ag38
ag38
ag38
ag38
ag38
ag38
ag38
ag38
ag38
ag38
ag38
ag38
ag38
ag38
ag38
ag38
ag38
ag38
ag38
ag38
ag38
ag38
ag38
ag38
ag38
ag37
ag37
ag38
ag38
ag38
ag38
ag37
ag38
ag38
ag38
ag37
ag38
ag38
ag38
ag37
ag38
ag37
ag38
ag37
ag38
ag38
ag38
ag38
ag37
ag38
ag38
ag38
ag37
ag38
ag38
ag38
ag37
ag38
ag37
ag38
ag38
ag38
ag38
ag38
ag37
ag38
ag38
ag38
ag37
ag38
ag38
ag38
ag37
ag38
ag37
ag38
ag38
ag38
ag38
ag38
ag38
ag38
ag38
ag38
ag38
ag38
ag38
ag38
ag38
ag38
ag38
ag38
ag38
ag38
ag38
ag38
ag38
ag38
ag38
ag38
ag38
ag38
ag38
ag38
ag38
ag38
ag38
ag38
ag38
ag38
ag38
ag38
ag38
ag38
ag38
ag38
ag38
ag38
ag38
ag38
ag38
ag38
ag38
ag38
ag38
ag38
ag38
ag38
ag38
ag38
ag38
ag38
ag38
ag37
ag38
ag38
ag38
ag37
ag38
ag37
ag38
ag38
ag38
ag38
ag38
ag38
ag38
ag38
ag38
ag38
ag38
ag38
ag38
ag38
ag38
ag38
ag38
ag38
ag38
ag38
ag38
ag38
ag38
ag38
ag38
ag38
ag38
ag38
ag38
ag38
ag38
ag37
ag38
ag37
ag38
ag38
ag38
ag38
ag38
ag38
ag38
ag38
ag38
ag38
ag38
ag38
ag38
ag38
ag38
ag38
ag38
ag37
ag38
ag38
ag38
ag38
aS'sun'
p39
ag39
ag39
ag39
ag39
ag39
ag39
ag39
ag39
ag39
ag39
ag39
ag39
ag39
ag39
ag39
ag39
ag39
ag39
ag39
ag39
ag39
ag39
ag39
ag39
ag39
ag39
ag39
ag39
ag39
ag39
ag39
ag39
ag39
ag39
ag39
ag39
ag39
ag39
ag39
ag39
ag39
ag39
ag39
ag39
ag39
ag39
ag39
ag39
ag39
ag39
ag39
ag39
ag39
ag39
ag39
ag39
ag39
ag39
ag39
ag39
ag39
ag39
ag39
ag39
ag39
ag39
ag39
ag39
ag39
ag39
ag39
ag39
ag39
ag39
ag39
ag39
ag39
ag39
ag39
ag39
ag39
ag39
ag39
ag39
ag39
ag39
ag39
ag39
ag39
ag39
ag39
ag39
ag39
ag39
ag39
ag39
ag39
ag39
ag39
ag39
ag39
ag39
ag39
ag39
ag39
ag39
ag39
ag39
ag39
ag39
ag39
ag39
ag39
ag39
ag39
ag39
ag39
ag39
ag39
ag39
ag39
ag39
ag39
ag39
ag39
ag39
ag39
ag39
ag39
ag39
ag39
ag39
ag39
ag39
ag39
ag39
ag39
ag39
ag39
ag39
ag39
ag39
ag39
ag39
ag39
ag39
ag39
ag39
ag39
ag39
ag39
ag39
ag39
ag39
ag39
ag39
ag39
ag39
ag39
ag39
ag39
ag39
ag39
ag39
ag39
ag39
ag39
ag39
ag39
ag39
ag39
ag39
ag39
ag39
ag39
ag39
ag39
ag39
ag39
ag39
ag39
ag39
ag39
ag39
ag39
ag39
ag39
ag39
ag39
ag39
ag39
ag39
ag39
ag39
ag39
ag39
ag39
ag39
ag39
ag39
ag39
ag39
ag39
ag39
ag39
ag39
ag39
ag39
ag39
ag39
ag39
ag39
ag39
ag39
ag39
ag39
ag39
ag39
ag39
ag39
ag39
ag39
ag39
ag39
ag39
ag39
ag39
ag39
ag39
ag39
ag39
ag39
ag39
ag39
ag39
ag39
ag39
ag39
ag39
ag39
ag39
ag39
ag36
ag39
ag39
ag36
ag39
ag39
ag39
ag39
ag39
ag39
ag39
ag39
ag39
ag39
ag39
ag39
ag39
ag39
ag39
ag39
ag39
ag39
ag39
ag39
ag39
ag36
ag39
ag39
ag39
ag39
ag39
ag39
ag39
aS'moon'
p40
ag40
ag40
ag40
ag40
ag40
ag40
ag40
ag40
ag40
ag40
ag40
ag40
ag40
ag40
ag40
ag40
ag40
ag40
ag40
ag40
ag40
ag40
ag40
ag40
ag40
ag40
ag40
ag40
ag40
ag40
ag40
ag40
ag40
ag40
ag40
ag40
ag40
ag40
ag40
ag40
ag40
ag40
ag40
ag40
ag40
ag40
ag40
ag40
ag40
ag40
ag40
ag40
ag40
ag40
ag40
ag40
ag40
ag40
ag40
ag40
ag40
ag40
ag40
ag40
ag14
ag40
ag40
ag40
ag40
ag14
ag40
ag40
ag40
ag40
ag14
ag40
ag14
ag40
ag40
ag40
ag40
ag40
ag40
ag40
ag40
ag24
ag40
ag40
ag40
ag40
ag40
ag40
ag40
ag40
ag40
ag40
ag40
ag40
ag40
ag40
ag40
ag40
ag40
ag40
ag40
ag40
ag40
ag40
ag40
ag40
ag40
ag40
ag40
ag40
ag40
ag40
ag40
ag40
ag40
ag40
ag40
ag40
ag40
ag40
ag40
ag40
ag40
ag40
ag40
ag40
ag40
ag40
ag40
ag40
ag40
ag40
ag40
ag40
ag40
ag40
ag40
ag40
ag40
ag40
ag40
ag40
ag40
ag40
ag40
ag40
ag40
ag40
ag40
ag40
ag40
ag40
ag14
ag40
ag40
ag40
ag40
ag14
ag40
ag14
ag40
ag40
ag40
ag40
ag40
ag40
ag40
ag40
ag40
ag40
ag40
ag40
ag40
ag40
ag40
ag40
ag40
ag40
ag40
ag40
ag40
ag40
ag40
ag40
ag40
ag40
ag40
ag40
ag40
ag40
ag40
ag40
ag40
ag40
ag40
ag40
ag40
ag40
ag40
ag40
ag40
ag40
ag14
ag40
ag14
ag40
ag40
ag40
ag40
ag40
ag40
ag40
ag40
ag40
ag40
ag40
ag40
ag40
ag40
ag40
ag40
ag40
ag40
ag40
ag14
ag40
aS'new'
p41
ag41
ag41
ag41
ag41
ag41
ag41
ag41
ag41
ag41
ag41
ag41
ag41
ag41
ag41
ag41
ag41
ag41
ag41
ag41
ag41
ag41
ag41
ag41
ag41
ag41
ag41
ag41
ag41
ag41
ag41
ag41
ag41
ag41
ag41
ag41
ag41
ag41
ag41
ag41
ag41
ag41
ag41
ag41
ag41
ag41
ag41
ag41
ag41
ag41
ag41
ag41
ag41
ag41
ag41
ag41
ag41
ag41
ag41
ag41
ag41
ag41
ag41
ag41
ag41
ag41
ag41
ag41
ag41
ag41
ag41
ag41
ag41
ag41
ag41
ag41
ag41
ag41
ag41
ag41
ag41
ag41
ag41
ag41
ag41
ag41
ag41
ag41
ag41
ag41
ag41
ag41
ag41
ag41
ag41
ag41
ag41
ag41
ag41
ag41
ag41
ag41
ag41
ag41
ag41
ag41
ag41
ag41
ag41
ag41
ag41
ag41
ag41
ag41
ag41
ag41
ag41
ag41
ag41
ag41
ag41
ag41
ag41
ag41
ag41
ag41
ag41
ag41
ag41
ag41
ag41
ag41
ag41
ag41
ag41
ag41
ag41
ag41
ag41
ag41
ag41
ag41
ag41
ag41
ag41
ag41
ag41
ag41
ag41
ag41
ag41
ag41
ag41
ag41
ag41
ag41
ag41
ag41
ag41
ag41
ag41
ag41
ag41
ag41
ag41
ag41
ag41
ag41
ag41
ag41
ag41
ag41
ag41
ag41
ag41
ag41
ag41
ag41
ag41
ag41
ag41
ag41
ag41
ag41
ag41
ag41
ag41
ag41
ag41
ag41
ag41
ag41
ag41
ag41
ag41
ag41
ag41
ag41
ag41
ag41
ag41
ag41
ag41
ag41
ag41
ag41
ag41
ag41
ag41
ag41
ag41
ag41
ag41
ag41
ag41
ag41
ag41
ag41
ag41
ag41
ag41
ag41
ag41
ag41
ag41
ag41
ag41
ag41
ag41
ag41
ag41
ag41
ag41
ag41
ag41
ag41
ag41
ag41
ag41
ag41
ag41
ag41
ag41
ag41
ag41
ag41
ag41
ag41
ag41
ag41
ag41
ag41
ag41
aS'bird'
p42
ag42
ag42
ag42
ag42
ag42
ag42
ag42
ag42
ag42
ag42
ag42
ag42
ag42
ag42
ag42
ag42
ag42
ag42
ag42
ag42
ag42
ag42
ag42
ag42
ag42
ag42
ag42
ag42
ag42
ag42
ag42
ag42
ag42
ag42
ag42
ag42
ag42
ag42
ag42
ag42
ag42
ag42
ag42
ag42
ag42
ag42
ag42
ag42
ag42
ag42
ag42
ag42
ag42
ag42
ag42
ag42
ag42
ag42
ag42
ag42
ag42
ag42
ag42
ag42
ag42
ag42
ag42
ag42
ag42
ag42
ag42
ag42
ag42
ag42
ag42
ag42
ag42
ag42
ag42
ag42
ag42
ag42
ag42
ag42
ag42
ag42
ag42
ag42
ag42
ag42
ag42
ag42
ag42
ag42
ag42
ag42
ag42
ag42
ag42
ag42
ag42
ag42
ag42
ag42
ag42
ag42
ag42
ag23
ag42
ag42
ag42
ag42
ag42
ag42
ag42
ag42
ag42
ag42
ag42
ag42
ag42
ag42
ag42
ag42
ag42
ag42
ag42
ag42
ag42
ag42
ag42
ag42
ag42
ag42
ag42
ag42
ag42
ag42
ag42
ag42
ag42
ag42
ag42
ag42
ag42
ag42
ag42
ag42
ag42
ag42
ag42
ag42
ag42
ag42
ag42
ag42
ag42
ag42
ag42
ag42
ag42
ag42
ag42
ag42
ag42
ag42
ag42
ag42
ag42
ag42
ag42
ag42
ag42
ag42
ag42
ag42
ag42
ag42
ag42
ag42
ag42
ag42
ag42
ag42
ag42
ag42
ag42
ag42
ag42
ag42
ag42
ag42
ag42
ag42
ag42
ag42
ag42
ag42
ag42
ag42
ag42
ag42
ag42
ag42
ag42
ag42
ag42
ag42
ag42
ag42
ag42
ag42
ag42
ag42
ag42
ag42
ag42
ag42
ag42
ag42
ag42
ag42
ag42
ag42
ag42
ag42
ag42
ag42
ag42
ag42
aS'red'
p43
ag43
ag43
ag43
ag43
ag43
ag43
ag43
ag43
ag43
ag43
ag43
ag43
ag43
ag43
ag43
ag43
ag43
ag43
ag43
ag43
ag43
ag43
ag43
ag43
ag43
ag43
ag43
ag43
ag43
ag43
ag43
ag43
ag43
ag43
ag43
ag43
ag43
ag43
ag43
ag43
ag43
ag43
ag43
ag43
ag43
ag43
ag43
ag43
ag43
ag43
ag43
ag43
ag43
ag43
ag43
ag43
ag43
ag43
ag43
ag43
ag43
ag43
ag43
ag43
ag43
ag43
ag43
ag43
ag43
ag43
ag43
ag43
ag43
ag43
ag43
ag43
ag43
ag43
ag43
ag43
ag43
ag43
ag43
ag43
ag43
ag43
ag43
ag43
ag43
ag43
ag43
ag43
ag43
ag43
ag43
ag43
ag43
ag43
ag43
ag43
ag43
ag43
ag43
ag43
ag43
ag43
ag43
ag43
ag43
ag43
ag43
ag43
ag43
ag43
ag43
ag43
ag43
ag43
ag43
ag43
ag43
ag43
ag43
ag43
ag43
ag43
ag43
ag43
ag43
ag43
ag43
ag43
ag43
ag43
ag43
ag43
ag43
ag43
ag43
ag43
ag43
ag43
ag43
ag43
ag43
ag43
ag43
ag43
ag43
ag43
ag43
ag43
ag43
ag43
ag43
ag43
ag43
ag43
ag43
ag43
ag43
ag43
ag43
ag43
ag43
ag43
ag43
ag43
ag43
ag43
ag43
ag43
ag43
ag43
ag43
ag43
ag43
ag43
ag43
ag43
ag43
ag43
ag43
ag43
ag43
ag43
ag43
ag43
ag43
ag43
ag43
ag43
ag43
ag43
ag43
ag43
ag43
ag43
ag43
ag43
ag43
ag43
ag43
ag43
ag43
ag43
ag43
ag43
ag43
ag43
ag43
ag43
ag43
ag43
ag43
ag43
ag43
ag43
ag43
ag43
ag43
ag43
ag43
ag43
ag43
ag43
ag43
ag43
ag43
ag43
ag43
ag43
ag43
ag43
ag43
ag43
ag43
ag43
ag43
ag43
ag43
ag43
ag43
ag43
ag43
ag43
ag43
ag43
ag43
ag43
ag43
ag43
ag43
ag43
ag43
ag43
ag43
ag43
ag43
ag43
ag43
ag43
ag43
ag43
ag43
ag43
ag43
ag43
ag43
ag43
ag43
ag43
ag43
ag43
ag43
aS'we'
p44
ag44
ag44
ag44
ag44
ag44
ag44
ag44
ag44
ag44
ag44
ag44
ag44
ag44
ag44
ag44
ag44
ag44
ag44
ag44
ag44
ag44
ag44
ag44
ag44
ag44
ag44
ag44
ag44
ag44
ag44
ag44
ag44
ag44
ag44
ag44
ag44
ag44
ag44
ag44
ag44
ag44
ag44
ag44
ag44
ag44
ag44
ag44
ag44
ag44
ag44
ag44
ag44
ag44
ag44
ag44
ag44
ag44
ag44
ag44
ag44
ag44
ag44
ag44
ag44
ag44
ag44
ag44
ag44
ag44
ag44
ag44
ag44
ag44
ag44
ag44
ag44
ag44
ag44
ag44
ag44
ag44
ag44
ag44
ag44
ag44
ag44
ag44
ag44
ag44
ag44
ag44
ag44
ag44
ag44
ag44
ag44
ag44
ag44
ag44
ag44
ag44
ag44
ag44
ag44
ag44
ag44
ag44
ag44
ag44
ag44
ag44
ag44
ag44
ag44
ag44
ag44
ag44
ag44
ag44
ag44
ag44
ag44
ag44
ag44
ag44
ag44
ag44
ag44
ag44
ag44
ag44
ag44
ag44
ag44
ag44
ag44
ag44
ag44
ag44
ag44
ag44
ag44
ag44
ag44
ag44
ag44
ag44
ag44
ag44
ag44
ag44
ag44
ag44
ag44
ag44
ag44
ag44
ag44
ag44
ag44
ag44
ag44
ag44
ag44
ag44
ag44
ag44
ag44
ag44
ag44
ag44
ag44
ag44
ag44
ag44
ag44
ag44
ag44
ag44
ag44
ag44
ag44
ag44
ag19
ag44
ag44
ag44
ag44
ag44
ag44
ag44
ag44
ag44
ag44
ag44
ag44
ag44
ag44
ag44
ag44
ag44
ag44
ag44
ag44
ag44
ag44
ag44
ag44
ag44
aS'grease'
p45
ag45
ag45
ag45
ag45
ag45
ag45
ag45
ag45
ag45
ag45
ag45
ag45
ag45
ag45
ag45
ag45
ag45
ag45
ag45
ag45
ag45
ag45
ag45
ag45
ag45
ag45
ag45
ag45
ag45
ag45
ag45
ag45
ag45
ag45
ag45
ag45
ag45
ag45
ag45
ag45
ag45
ag45
ag45
ag45
ag45
ag45
ag45
ag45
ag45
ag45
ag45
ag45
ag45
ag45
ag45
ag45
ag45
ag45
ag45
ag45
ag45
ag45
ag45
ag45
ag45
ag45
ag45
ag45
ag45
ag45
ag45
ag45
ag45
ag45
ag45
ag45
ag45
ag45
ag45
ag45
ag45
ag45
ag45
ag45
ag45
ag45
ag45
ag45
ag45
ag45
ag45
ag45
ag45
ag45
ag45
ag45
ag45
ag45
ag45
ag45
ag45
ag45
ag45
ag45
ag45
ag45
ag45
ag45
ag45
ag45
ag45
ag45
ag45
ag45
ag45
ag45
ag45
ag45
ag45
ag45
ag45
ag45
ag45
ag45
ag45
ag45
ag45
ag45
ag45
ag45
ag45
ag45
ag45
ag45
ag45
ag45
ag45
ag45
ag45
ag45
ag45
ag45
ag45
ag45
ag45
ag45
ag45
ag45
ag45
ag45
ag45
ag45
ag45
ag45
ag45
ag45
ag45
ag45
ag45
ag45
ag45
ag45
ag45
ag45
ag45
ag45
ag45
ag45
ag45
ag45
ag45
ag45
ag45
ag45
ag45
ag45
ag45
ag45
ag45
ag45
ag45
ag45
ag45
ag45
ag45
ag45
ag45
ag45
ag45
ag45
ag45
ag45
ag45
ag45
ag45
ag45
ag45
ag45
ag45
ag45
ag45
ag45
ag45
ag45
ag45
ag45
ag45
ag45
ag45
aS'burn'
p46
ag46
ag46
ag46
ag46
ag46
ag46
ag46
ag46
ag46
ag46
ag46
ag46
ag46
ag46
ag46
ag46
ag46
ag46
ag46
ag46
ag46
ag46
ag46
ag46
ag46
ag46
ag46
ag46
ag46
ag46
ag46
ag46
ag46
ag46
ag46
ag46
ag46
ag46
ag46
ag46
ag46
ag46
ag46
ag46
ag46
ag46
ag46
ag46
ag46
ag46
ag46
ag46
ag46
ag46
ag46
ag46
ag46
ag46
ag46
ag46
ag46
ag46
ag46
ag46
ag46
ag46
ag46
ag46
ag46
ag46
ag46
ag46
ag46
ag46
ag46
ag46
ag46
ag46
ag46
ag46
ag46
ag46
ag46
ag46
ag46
ag46
ag46
ag46
ag46
ag46
ag46
ag46
ag46
ag46
ag46
ag46
ag46
ag46
ag46
ag46
ag46
ag46
ag46
ag46
ag46
ag46
ag46
ag46
ag46
ag46
ag46
ag46
ag46
ag46
ag46
ag46
ag46
ag46
ag46
ag46
ag46
ag46
ag46
ag46
ag46
ag46
ag46
ag46
ag46
ag46
ag46
ag46
ag46
ag46
ag46
ag46
ag46
ag46
ag46
ag46
ag46
ag46
ag46
ag46
ag46
ag46
ag46
ag46
ag46
ag46
ag46
ag46
ag46
ag46
ag46
ag46
ag46
ag46
ag46
ag46
ag46
ag46
ag46
ag46
ag46
ag46
ag46
ag46
ag46
ag46
ag46
ag46
ag46
ag46
ag46
ag46
ag46
ag46
ag46
ag46
ag46
ag46
ag46
ag46
ag46
ag46
ag46
ag46
ag46
ag46
ag46
ag46
ag46
ag46
ag46
ag46
ag46
ag46
ag46
ag46
ag46
ag46
ag46
ag46
ag46
ag46
ag46
ag46
ag46
ag46
ag46
ag46
ag46
ag46
ag46
ag46
ag46
ag46
ag46
ag46
ag46
ag46
ag46
ag46
ag46
ag46
ag46
ag46
ag46
ag46
ag46
ag46
ag46
ag46
ag46
ag46
ag46
ag46
ag46
ag46
ag46
ag46
ag46
ag46
ag46
ag46
ag46
ag46
ag46
ag46
ag46
ag46
aS'water'
p47
ag47
ag47
ag47
ag47
ag47
ag47
ag47
ag47
ag47
ag47
ag47
ag47
ag47
ag47
ag47
ag47
ag47
ag47
ag47
ag47
ag47
ag47
ag47
ag47
ag47
ag47
ag47
ag47
ag47
ag47
ag47
ag47
ag47
ag47
ag47
ag47
ag47
ag47
ag47
ag47
ag47
ag47
ag47
ag47
ag47
ag47
ag47
ag47
ag47
ag47
ag47
ag47
ag47
ag47
ag47
ag47
ag47
ag47
ag47
ag47
ag47
ag47
ag47
ag47
ag47
ag47
ag47
ag47
ag47
ag47
ag47
ag47
ag47
ag47
ag47
ag47
ag47
ag47
ag47
ag47
ag47
ag47
ag47
ag47
ag47
ag47
ag47
ag47
ag47
ag47
ag47
ag47
ag47
ag47
ag47
ag47
ag47
ag47
ag47
ag47
ag47
ag47
ag47
ag47
ag47
ag47
ag47
ag47
ag47
ag47
ag47
ag47
ag47
ag47
ag47
ag47
ag47
ag47
ag47
ag47
ag47
ag47
ag47
ag47
ag47
ag47
ag47
ag47
ag47
ag47
ag47
ag47
ag47
ag47
ag47
ag47
ag47
ag47
ag47
ag47
ag47
ag47
ag47
ag47
ag47
ag47
ag47
ag47
ag47
ag47
ag47
ag47
ag47
ag47
ag47
ag47
ag47
ag47
ag47
ag47
ag47
ag47
ag47
ag47
ag47
ag47
ag47
ag47
ag47
ag47
ag47
ag47
ag47
ag47
ag47
ag47
ag47
ag47
ag47
ag47
ag47
ag47
ag47
ag47
ag47
ag47
ag47
ag47
ag47
ag47
ag47
ag47
ag47
ag47
ag47
ag47
ag47
ag47
ag47
ag47
ag47
ag47
ag47
ag47
ag47
ag47
ag47
ag47
ag47
ag47
ag47
ag47
ag47
ag47
ag47
ag47
ag47
ag47
ag47
ag47
ag47
ag47
ag47
ag47
ag47
ag47
ag47
ag47
ag47
ag47
ag47
ag47
ag47
ag47
ag47
ag47
ag47
ag47
ag47
ag47
ag47
ag47
ag47
ag47
ag47
ag47
ag47
ag47
ag47
ag47
ag47
ag47
ag47
ag47
ag47
ag47
ag47
ag47
ag47
ag47
ag47
ag47
ag47
ag47
ag47
ag47
ag47
ag47
ag47
ag47
ag47
ag47
ag47
ag47
ag47
aS'path'
p48
ag48
ag48
ag48
ag48
ag48
ag48
ag48
ag48
ag48
ag48
ag48
ag48
ag48
ag48
ag48
ag48
ag48
ag48
ag48
ag48
ag48
ag48
ag48
ag48
ag48
ag48
ag48
ag48
ag48
ag48
ag48
ag48
ag48
ag48
ag48
ag48
ag48
ag48
ag48
ag48
ag48
ag48
ag20
ag48
ag48
ag20
ag48
ag20
ag20
ag20
ag48
ag48
ag48
ag48
ag48
ag48
ag20
ag48
ag48
ag20
ag48
ag48
ag48
ag48
ag20
ag48
ag20
ag20
ag20
ag48
ag48
ag48
ag48
ag48
ag48
ag20
ag48
ag48
ag20
ag48
ag48
ag48
ag48
ag48
ag48
ag48
ag48
ag48
ag48
ag48
ag48
ag48
ag48
ag48
ag48
ag48
ag48
ag48
ag48
ag48
ag48
ag48
ag48
ag48
ag48
ag48
ag48
ag48
ag48
ag48
ag48
ag48
ag48
ag48
ag48
ag48
ag48
ag20
ag20
ag20
ag48
ag48
ag48
ag48
ag48
ag48
ag20
ag48
ag48
ag20
ag48
ag48
ag48
ag48
ag48
ag48
ag48
ag48
ag48
ag48
ag48
ag48
ag48
ag48
ag48
ag48
ag48
ag20
ag20
ag48
ag48
ag48
ag48
ag48
ag48
ag20
ag48
ag48
ag20
ag48
ag48
ag20
ag48
ag48
ag48
ag48
ag48
ag48
ag20
ag48
ag48
ag20
ag48
ag48
ag48
ag48
ag48
ag48
ag48
ag48
ag20
ag48
ag48
ag20
ag48
ag48
ag48
ag48
ag48
ag48
ag48
ag48
ag48
ag48
ag48
ag48
ag48
ag48
ag48
ag48
ag48
ag48
ag48
ag48
ag48
ag48
ag48
ag48
ag48
ag48
ag48
ag48
ag48
ag48
ag48
ag48
ag48
ag48
ag48
ag48
ag48
ag48
ag48
ag48
ag48
ag48
ag48
ag48
ag48
ag48
ag48
ag48
ag48
ag48
ag48
ag48
ag48
ag48
ag48
ag20
ag48
ag48
ag48
ag48
ag48
ag48
ag48
ag48
ag48
ag48
ag48
ag48
aS'ash'
p49
ag49
ag49
ag49
ag49
ag49
ag49
ag49
ag49
ag49
ag49
ag49
ag49
ag49
ag49
ag49
ag49
ag49
ag49
ag49
ag49
ag49
ag49
ag49
ag49
ag49
ag49
ag49
ag49
ag49
ag49
ag49
ag49
ag49
ag49
ag49
ag49
ag49
ag49
ag49
ag49
ag49
ag49
ag49
ag49
ag49
ag49
ag49
ag49
ag49
ag49
ag49
ag49
ag49
ag49
ag49
ag49
ag49
ag49
ag49
ag49
ag49
ag49
ag49
ag49
ag49
ag49
ag49
ag49
ag49
ag49
ag49
ag49
ag49
ag49
ag49
ag49
ag49
ag49
ag49
ag49
ag49
ag49
ag49
ag49
ag49
ag49
ag43
ag49
ag43
ag49
ag49
ag43
ag43
ag43
ag43
ag49
ag43
ag49
ag49
ag43
ag49
ag49
ag43
ag49
ag49
ag49
ag49
ag49
ag49
ag49
ag49
ag49
ag49
ag49
ag49
ag49
ag49
ag49
ag49
ag49
ag49
ag49
ag49
ag43
ag49
ag49
ag43
ag43
ag43
ag43
ag49
ag43
ag49
ag49
ag43
ag49
ag49
ag43
ag49
ag49
ag49
ag49
ag49
ag49
ag49
ag49
ag49
ag49
ag49
ag49
ag49
ag49
ag49
ag49
ag49
ag49
ag49
ag43
ag43
ag43
ag43
ag49
ag43
ag49
ag49
ag43
ag49
ag49
ag43
ag49
ag49
ag49
ag49
ag49
ag49
ag49
ag49
ag49
ag49
ag49
ag49
ag49
ag49
ag49
ag49
ag49
ag49
ag49
ag49
ag49
ag49
ag49
ag49
ag49
ag49
ag49
ag49
ag43
ag43
ag43
ag49
ag43
ag49
ag49
ag43
ag49
ag49
ag43
ag49
ag43
ag43
ag49
ag43
ag49
ag49
ag43
ag49
ag49
ag43
ag49
ag43
ag49
ag43
ag49
ag49
ag43
ag49
ag49
ag43
ag49
ag49
ag43
ag49
ag49
ag43
ag49
ag49
ag43
ag49
ag49
ag49
ag49
ag49
ag49
ag49
ag49
ag49
ag49
ag49
ag43
ag49
ag49
ag43
ag49
ag49
ag49
ag49
ag49
ag49
ag49
ag49
ag49
ag49
ag49
ag49
ag49
ag49
ag43
ag49
ag49
ag49
ag49
ag49
ag49
ag49
aS'come'
p50
ag50
ag50
ag50
ag50
ag50
ag50
ag50
ag50
ag50
ag50
ag50
ag50
ag50
ag50
ag50
ag50
ag50
ag50
ag50
ag50
ag50
ag50
ag50
ag50
ag50
ag50
ag50
ag50
ag50
ag50
ag50
ag50
ag50
ag50
ag50
ag50
ag50
ag50
ag50
ag50
ag50
ag50
ag50
ag50
ag50
ag50
ag50
ag50
ag50
ag50
ag50
ag50
ag50
ag50
ag50
ag50
ag50
ag50
ag50
ag50
ag50
ag50
ag50
ag50
ag50
ag50
ag50
ag50
ag50
ag50
ag50
ag50
ag50
ag50
ag50
ag50
ag50
ag50
ag50
ag50
ag50
ag50
ag50
ag50
ag50
ag50
ag50
ag50
ag50
ag50
ag50
ag50
ag50
ag50
ag50
ag50
ag50
ag50
ag50
ag50
ag50
ag50
ag50
ag50
ag50
ag50
ag50
ag50
ag50
ag50
ag50
ag50
ag50
ag50
ag50
ag50
ag50
ag50
ag50
ag50
ag50
ag50
ag50
ag50
ag50
ag50
ag50
ag50
ag50
ag50
ag50
ag50
ag28
ag50
ag50
ag50
ag50
ag28
ag50
ag50
ag50
ag50
ag50
ag50
ag50
ag50
ag28
ag50
ag50
ag50
ag50
ag28
ag50
ag50
ag50
ag50
ag50
ag50
ag50
ag50
ag28
ag50
ag50
ag50
ag50
ag50
ag50
ag50
ag50
ag50
ag50
ag50
ag50
ag50
ag50
ag50
ag50
ag50
ag50
ag50
ag50
ag50
ag50
ag50
ag50
ag50
ag50
ag50
ag50
ag50
ag50
ag50
ag50
ag50
ag50
ag50
ag50
ag50
ag50
ag50
ag50
ag50
ag50
ag50
ag50
ag50
ag50
ag50
ag50
ag50
ag50
ag50
ag50
ag50
ag50
ag28
ag50
ag50
ag50
ag50
ag50
ag50
ag50
ag50
ag50
ag50
ag50
ag50
ag50
ag50
ag50
ag50
ag50
ag50
ag50
ag50
ag50
ag50
ag50
ag50
ag50
ag50
ag50
ag50
ag50
ag50
ag50
ag50
ag50
ag50
ag50
ag50
aS'dry'
p51
ag51
ag51
ag51
ag51
ag51
ag51
ag51
ag51
ag51
ag51
ag51
ag51
ag51
ag51
ag51
ag51
ag51
ag51
ag51
ag51
ag51
ag51
ag51
ag51
ag51
ag51
ag51
ag51
ag51
ag51
ag51
ag51
ag51
ag51
ag51
ag51
ag51
ag51
ag51
ag51
ag51
ag51
ag51
ag51
ag51
ag51
ag51
ag51
ag51
ag51
ag51
ag51
ag51
ag51
ag51
ag51
ag51
ag51
ag51
ag51
ag51
ag51
ag51
ag51
ag51
ag51
ag51
ag51
ag51
ag51
ag51
ag51
ag51
ag51
ag51
ag51
ag51
ag51
ag51
ag51
ag51
ag51
ag51
ag51
ag51
ag51
ag51
ag51
ag51
ag51
ag51
ag51
ag51
ag51
ag51
ag51
ag51
ag51
ag51
ag51
ag51
ag51
ag51
ag51
ag51
ag51
ag51
ag51
ag51
ag51
ag51
ag51
ag51
ag51
ag51
ag51
ag51
ag51
ag51
ag51
ag51
ag51
ag51
ag51
ag51
ag51
ag51
ag51
ag51
ag51
ag51
ag51
ag51
ag51
ag51
ag51
ag51
ag51
ag51
ag51
ag51
ag51
ag51
ag51
ag51
ag51
ag51
ag51
ag51
ag51
ag51
ag51
ag51
ag51
ag51
ag51
ag51
ag51
ag51
ag51
ag51
ag51
ag51
ag51
ag51
ag51
ag51
ag51
ag51
ag51
ag51
ag51
ag51
ag51
ag51
ag51
ag51
ag51
ag51
ag51
ag51
ag51
ag51
ag51
ag51
ag51
ag51
ag51
ag51
ag51
ag51
ag51
ag51
ag51
ag51
ag51
ag51
ag51
ag51
ag51
ag51
ag51
ag51
ag51
ag51
ag51
ag51
ag51
ag51
ag51
ag51
ag51
ag51
ag51
ag51
ag51
ag51
ag51
ag51
ag51
ag51
ag51
ag51
ag51
ag51
ag51
ag51
ag51
ag51
ag51
ag51
ag51
ag51
ag51
ag51
ag51
ag51
ag51
ag51
ag51
ag51
ag51
ag51
ag51
ag51
ag51
ag51
ag51
ag51
ag51
ag51
ag51
aS'stone'
p52
ag52
ag52
ag52
ag52
ag52
ag52
ag52
ag52
ag52
ag52
ag52
ag52
ag52
ag52
ag52
ag52
ag52
ag52
ag52
ag52
ag52
ag52
ag52
ag52
ag52
ag52
ag52
ag52
ag52
ag52
ag52
ag52
ag52
ag52
ag52
ag52
ag52
ag52
ag52
ag52
ag52
ag52
ag52
ag52
ag52
ag52
ag52
ag52
ag52
ag52
ag52
ag52
ag52
ag52
ag52
ag52
ag52
ag52
ag52
ag52
ag52
ag52
ag52
ag52
ag52
ag52
ag52
ag52
ag52
ag52
ag52
ag52
ag52
ag52
ag52
ag52
ag52
ag52
ag52
ag52
ag52
ag52
ag52
ag52
ag52
ag52
ag52
ag52
ag52
ag52
ag52
ag52
ag52
ag52
ag52
ag52
ag52
ag52
ag52
ag52
ag52
ag52
ag52
ag52
ag52
ag52
ag52
ag52
ag52
ag52
ag52
ag52
ag52
ag52
ag52
ag52
ag52
ag52
ag52
ag52
ag52
ag52
ag52
ag52
ag52
ag52
ag52
ag52
ag52
ag52
ag52
ag52
ag52
ag52
ag52
ag52
ag52
ag52
ag52
ag52
ag52
ag52
ag52
ag52
ag52
ag52
ag52
ag52
ag52
ag52
ag52
ag52
ag52
ag52
ag52
ag52
ag52
ag52
ag52
ag52
ag52
ag52
ag52
ag52
ag52
ag52
ag52
ag52
ag52
ag52
ag52
ag52
ag52
ag52
ag52
ag52
ag52
ag52
ag52
ag52
ag52
ag52
ag52
ag52
ag52
ag52
ag52
ag52
ag52
ag52
ag52
ag52
ag52
ag52
ag52
ag52
ag52
ag52
ag52
ag52
ag52
ag52
ag52
ag52
ag52
ag52
ag52
ag52
ag52
ag52
ag52
ag52
ag52
ag52
ag52
ag52
ag52
ag52
ag52
ag52
ag52
ag52
ag52
ag52
ag52
ag52
ag52
ag52
ag52
ag52
ag52
ag52
ag52
ag52
ag52
ag52
ag52
ag52
ag52
ag52
ag52
ag52
ag52
ag52
ag52
ag52
ag52
ag52
ag52
ag52
ag52
ag52
ag52
ag52
ag52
ag52
ag52
ag52
ag52
ag52
ag52
ag52
ag52
ag52
ag52
ag52
ag52
ag52
ag52
ag52
ag52
ag52
ag52
ag52
ag52
aS'many'
p53
ag53
ag53
ag53
ag17
ag53
ag53
ag53
ag53
ag53
ag53
ag53
ag53
ag53
ag53
ag17
ag53
ag53
ag53
ag53
ag53
ag53
ag53
ag53
ag53
ag53
ag53
ag53
ag53
ag53
ag53
ag53
ag53
ag53
ag53
ag53
ag53
ag53
ag53
ag53
ag53
ag53
ag53
ag53
ag53
ag53
ag53
ag53
ag53
ag53
ag53
ag53
ag53
ag53
ag53
ag53
ag53
ag53
ag53
ag53
ag53
ag53
ag53
ag53
ag53
ag53
ag53
ag53
ag53
ag53
ag53
ag53
ag53
ag53
ag53
ag53
ag53
ag53
ag53
ag53
ag53
ag53
ag53
ag53
ag53
ag53
ag53
ag53
ag53
ag53
ag53
ag53
ag53
ag53
ag53
ag53
ag53
ag53
ag53
ag53
ag53
ag53
ag53
ag53
ag53
ag53
ag53
ag53
ag53
ag53
ag53
ag53
ag53
ag53
ag53
ag17
ag53
ag53
ag53
ag53
ag53
ag53
ag53
ag53
ag53
ag53
ag53
ag53
ag53
ag53
ag53
ag53
ag53
ag53
ag53
ag53
ag53
ag53
ag53
ag53
ag53
ag53
ag53
ag53
ag53
ag53
ag53
ag53
ag53
ag53
ag53
ag53
ag53
ag53
ag53
ag53
ag53
ag53
ag53
ag53
ag53
ag53
ag53
ag53
ag53
ag53
ag53
ag53
ag53
ag53
ag53
ag53
ag53
ag53
ag53
ag53
ag53
ag53
ag53
ag53
ag53
ag53
ag53
ag53
ag53
ag53
ag53
ag53
ag53
ag53
ag53
ag53
ag53
ag53
ag53
ag53
ag53
ag53
ag53
ag53
ag53
ag53
ag53
ag53
ag53
ag53
ag53
ag53
ag53
ag53
ag53
ag53
ag53
ag53
ag53
ag53
ag53
ag53
ag53
ag53
ag53
ag53
ag53
ag53
ag53
ag53
ag53
ag53
ag53
ag53
ag53
ag53
ag53
ag53
ag53
ag53
ag53
ag53
ag53
ag53
ag53
ag53
ag53
ag53
ag53
ag53
ag53
ag53
ag53
ag53
ag53
ag53
ag53
ag53
ag53
ag53
ag53
ag53
ag53
ag53
ag53
ag53
ag53
ag53
ag53
ag53
ag53
ag53
ag53
ag53
ag53
ag53
ag53
ag53
ag53
ag53
aS'louse'
p54
ag54
ag54
ag54
ag54
ag54
ag54
ag54
ag54
ag54
ag54
ag54
ag54
ag54
ag54
ag54
ag54
ag54
ag54
ag54
ag54
ag54
ag54
ag54
ag54
ag54
ag54
ag54
ag54
ag54
ag54
ag54
ag54
ag54
ag54
ag54
ag54
ag54
ag54
ag54
ag54
ag54
ag54
ag54
ag54
ag54
ag54
ag54
ag54
ag54
ag54
ag54
ag54
ag54
ag54
ag54
ag54
ag54
ag54
ag54
ag54
ag54
ag54
ag54
ag54
ag54
ag54
ag54
ag54
ag54
ag54
ag54
ag54
ag54
ag54
ag54
ag54
ag54
ag54
ag54
ag54
ag54
ag54
ag54
ag54
ag54
ag54
ag54
ag54
ag54
ag54
ag54
ag54
ag54
ag54
ag54
ag54
ag54
ag54
ag54
ag54
ag54
ag54
ag54
ag54
ag54
ag54
ag54
ag54
ag54
ag54
ag54
ag54
ag54
ag54
ag54
ag54
ag54
ag54
ag54
ag54
ag54
ag54
ag54
ag54
ag54
ag54
ag54
ag54
ag54
ag54
ag54
ag54
ag54
ag54
ag54
ag54
ag54
ag54
ag54
ag54
ag54
ag54
ag54
ag54
ag54
ag54
ag54
ag54
ag54
ag54
ag54
ag54
ag54
ag54
ag54
ag54
ag54
ag54
ag54
ag54
ag54
ag54
ag54
ag54
ag54
ag54
ag54
ag54
ag54
ag54
ag54
ag54
ag54
ag54
ag54
ag54
ag54
ag54
ag54
ag54
ag54
ag54
ag54
ag54
ag54
ag54
ag54
ag54
ag54
ag54
ag54
ag54
ag54
ag54
ag54
ag54
ag54
ag54
ag54
ag54
ag54
ag54
ag54
ag54
ag54
ag54
ag54
ag54
ag54
ag54
ag54
ag54
ag54
ag54
ag54
ag54
ag54
ag54
ag54
ag54
ag54
ag54
ag54
ag54
ag54
ag54
ag54
ag54
ag54
ag54
ag54
ag54
ag54
ag54
ag54
ag54
ag54
ag54
ag54
ag54
ag54
ag54
ag54
ag54
ag54
ag54
ag54
ag54
ag54
ag54
ag54
ag54
ag54
ag54
ag54
ag54
ag54
ag54
ag54
ag54
ag54
ag54
ag54
ag54
ag54
ag54
ag54
ag54
ag54
ag54
ag54
ag54
ag54
ag54
ag54
ag11
ag11
ag11
ag11
ag11
ag11
ag11
ag11
ag11
ag11
ag11
ag11
ag11
ag11
ag11
ag11
ag11
ag11
ag11
ag11
ag11
ag11
ag11
ag11
ag11
ag11
ag11
ag11
ag11
ag11
ag11
ag11
ag11
ag11
ag11
ag11
ag11
ag11
ag11
ag11
ag11
ag11
ag11
ag11
ag11
ag11
ag11
ag11
ag11
ag11
ag11
ag11
ag11
ag11
ag11
ag11
ag11
ag11
ag11
ag11
ag11
ag11
ag11
ag11
ag11
ag11
ag11
ag11
ag11
ag11
ag11
ag11
ag11
ag11
ag11
ag11
ag11
ag11
ag11
ag11
ag11
ag11
ag11
ag11
ag11
ag11
ag11
ag11
ag11
ag11
ag11
ag11
ag11
ag11
ag11
ag11
ag11
ag11
ag11
ag11
ag11
ag11
ag11
ag11
ag11
ag11
ag11
ag11
ag11
ag11
ag11
ag11
ag11
ag11
ag11
ag11
ag11
ag11
ag11
ag11
ag11
ag11
ag11
ag11
ag11
ag11
ag11
ag11
ag11
ag11
ag11
ag11
ag11
ag11
ag11
ag11
ag11
ag11
ag11
ag11
ag11
ag11
ag11
ag11
ag11
ag11
ag11
ag11
ag11
ag11
ag11
ag11
ag11
ag11
ag11
ag11
ag11
ag11
ag11
ag11
ag11
ag11
ag11
ag11
ag11
ag11
ag11
ag11
ag11
ag11
ag11
ag11
ag11
ag11
ag11
ag11
ag11
ag11
ag11
ag11
ag11
ag11
ag11
ag11
ag11
ag11
ag11
ag11
ag11
ag11
ag11
ag11
ag11
ag11
ag11
ag11
ag11
ag11
ag11
ag11
ag11
ag11
ag11
ag11
ag11
ag11
ag11
ag11
ag11
ag11
ag11
ag11
ag11
ag11
ag11
ag11
ag11
ag11
ag11
ag11
ag11
ag11
ag11
ag11
ag11
ag11
ag11
ag11
ag11
ag11
ag11
aS'smoke'
p55
ag55
ag55
ag55
ag55
ag55
ag55
ag55
ag55
ag55
ag55
ag55
ag55
ag55
ag55
ag55
ag55
ag55
ag55
ag55
ag55
ag55
ag55
ag55
ag55
ag55
ag55
ag55
ag55
ag55
ag55
ag55
ag55
ag55
ag55
ag55
ag55
ag55
ag55
ag55
ag55
ag55
ag55
ag55
ag55
ag55
ag55
ag55
ag55
ag55
ag55
ag55
ag55
ag55
ag55
ag55
ag55
ag55
ag55
ag55
ag55
ag55
ag55
ag55
ag55
ag55
ag55
ag55
ag55
ag55
ag55
ag55
ag55
ag55
ag55
ag55
ag55
ag55
ag55
ag55
ag55
ag55
ag55
ag55
ag55
ag55
ag55
ag55
ag55
ag55
ag55
ag55
ag55
ag55
ag55
ag55
ag55
ag55
ag55
ag55
ag55
ag55
ag55
ag55
ag55
ag55
ag55
ag55
ag55
ag55
ag55
ag55
ag55
ag55
ag55
ag55
ag55
ag55
ag55
ag55
ag55
ag55
ag55
ag55
ag55
ag55
ag55
ag55
ag55
ag55
ag55
ag55
ag55
ag55
ag55
ag55
ag55
ag55
ag55
ag55
ag55
ag55
ag55
ag55
ag31
ag55
ag55
ag55
ag55
ag55
ag55
ag55
ag55
ag31
ag55
ag55
ag55
ag55
ag55
ag55
ag55
ag55
ag55
ag55
ag55
ag55
ag55
ag55
ag55
ag55
ag55
ag55
ag55
ag55
ag55
ag55
ag55
ag55
ag55
ag55
ag55
ag55
ag55
ag55
ag55
ag55
ag55
ag55
ag55
ag55
ag55
ag55
ag55
ag55
ag55
ag55
ag55
ag55
ag55
ag55
ag55
ag55
ag55
ag55
ag55
ag55
ag55
ag55
ag55
ag55
ag55
ag55
ag55
ag55
ag55
ag55
ag55
ag55
ag31
ag55
ag55
ag55
ag55
ag55
ag55
ag55
ag55
ag55
ag55
ag55
ag55
ag55
ag55
ag55
ag55
ag55
ag55
ag55
ag55
ag55
ag55
ag55
ag55
ag55
ag55
ag55
ag55
ag55
ag55
ag55
ag55
ag55
ag55
ag55
ag55
ag55
ag55
ag55
ag55
ag55
ag55
ag55
ag55
ag55
ag55
ag55
ag55
ag55
ag55
ag55
ag55
ag55
ag55
ag55
ag55
ag55
aS'tongue'
p56
ag41
ag56
ag41
ag56
ag56
ag56
ag41
ag56
ag41
ag56
ag56
ag56
ag56
ag56
ag56
ag41
ag56
ag56
ag56
ag41
ag56
ag41
ag56
ag56
ag56
ag56
ag56
ag56
ag56
ag56
ag56
ag56
ag56
ag56
ag56
ag56
ag56
ag56
ag56
ag56
ag56
ag56
ag56
ag56
ag56
ag41
ag56
ag56
ag56
ag41
ag56
ag41
ag56
ag56
ag56
ag56
ag56
ag56
ag41
ag56
ag56
ag56
ag41
ag56
ag41
ag56
ag56
ag56
ag56
ag56
ag56
ag56
ag56
ag56
ag56
ag56
ag56
ag56
ag56
ag56
ag56
ag56
ag56
ag56
ag56
ag56
ag56
ag56
ag41
ag56
ag41
ag56
ag56
ag56
ag56
ag56
ag56
ag41
ag56
ag56
ag56
ag41
ag56
ag41
ag56
ag56
ag56
ag56
ag56
ag56
ag56
ag56
ag56
ag56
ag56
ag56
ag56
ag56
ag56
ag56
ag56
ag56
ag56
ag56
ag56
ag56
ag56
ag56
ag56
ag56
ag56
ag56
ag56
ag56
ag56
ag56
ag56
ag56
ag56
ag56
ag56
ag56
ag56
ag56
ag56
ag56
ag56
ag56
ag56
ag56
ag56
ag56
ag56
ag56
ag56
ag56
ag41
ag56
ag56
ag56
ag56
ag56
ag56
ag41
ag56
ag56
ag56
ag41
ag56
ag41
ag56
ag56
ag56
ag56
ag56
ag56
ag56
ag56
ag56
ag56
ag56
ag56
ag56
ag56
ag56
ag56
ag56
ag56
ag56
ag56
ag41
ag56
ag56
ag56
ag41
ag56
ag41
ag56
ag56
ag56
ag56
ag56
ag56
ag56
ag56
ag56
ag56
ag56
ag56
ag56
ag56
ag56
ag56
ag56
ag56
ag56
ag56
ag56
ag56
ag56
ag56
ag56
ag56
ag56
ag56
ag56
ag56
ag56
ag56
ag56
ag56
ag56
ag56
ag56
ag56
ag56
ag56
ag56
ag56
ag56
ag56
ag56
ag56
ag56
ag56
ag56
ag56
ag56
ag56
ag56
ag56
ag56
ag56
ag56
ag56
ag56
ag56
ag41
ag56
ag41
ag56
ag56
ag56
ag56
ag56
ag56
ag56
ag56
ag56
ag56
ag56
ag56
ag56
ag41
ag56
aS'one'
p57
ag57
ag57
ag57
ag57
ag57
ag57
ag57
ag57
ag57
ag57
ag57
ag57
ag57
ag57
ag57
ag57
ag57
ag57
ag57
ag57
ag57
ag57
ag57
ag57
ag57
ag57
ag57
ag57
ag57
ag57
ag57
ag57
ag57
ag57
ag57
ag57
ag57
ag57
ag57
ag57
ag57
ag57
ag57
ag57
ag57
ag57
ag57
ag57
ag57
ag57
ag57
ag57
ag57
ag57
ag57
ag57
ag57
ag57
ag57
ag57
ag57
ag57
ag57
ag57
ag57
ag57
ag57
ag57
ag57
ag57
ag57
ag57
ag57
ag57
ag57
ag57
ag57
ag57
ag57
ag57
ag57
ag57
ag57
ag57
ag57
ag57
ag57
ag57
ag57
ag57
ag57
ag57
ag57
ag57
ag57
ag57
ag57
ag57
ag57
ag57
ag57
ag57
ag57
ag57
ag57
ag57
ag57
ag57
ag57
ag57
ag57
ag57
ag57
ag57
ag57
ag57
ag57
ag57
ag57
ag57
ag57
ag57
ag57
ag57
ag57
ag57
ag57
ag57
ag57
ag57
ag57
ag57
ag57
ag57
ag57
ag57
ag57
ag57
ag57
ag57
ag57
ag57
ag57
ag57
ag57
ag57
ag57
ag57
ag57
ag57
ag57
ag57
ag57
ag57
ag57
ag57
ag57
ag57
ag57
ag57
ag57
ag57
ag57
ag57
ag57
ag57
ag57
ag57
ag57
ag57
ag57
ag57
ag57
ag57
ag57
ag57
ag57
ag57
ag57
ag57
ag57
ag57
ag57
ag57
ag57
ag57
ag57
ag57
ag57
ag57
ag57
ag57
ag57
ag57
ag57
ag57
ag57
ag57
ag57
ag57
ag57
ag57
ag57
ag57
ag57
ag57
ag57
ag57
ag57
ag57
ag57
ag57
ag57
ag57
ag57
ag57
ag57
ag57
ag57
ag57
ag57
ag57
ag57
ag57
ag57
ag57
ag57
ag57
ag57
ag57
ag57
ag57
ag57
ag57
ag57
ag57
ag57
ag57
ag57
ag57
ag57
ag57
ag57
ag57
ag57
ag57
ag57
ag57
ag57
ag57
ag57
ag57
ag57
ag57
ag57
ag57
ag57
ag57
ag57
ag57
ag57
ag57
ag57
ag57
ag57
ag57
ag57
ag57
ag57
ag57
ag57
ag57
ag57
ag57
ag57
aS'cloud'
p58
ag58
ag58
ag58
ag58
ag58
ag58
ag58
ag58
ag58
ag58
ag58
ag58
ag58
ag58
ag58
ag58
ag58
ag58
ag58
ag58
ag58
ag58
ag58
ag58
ag58
ag58
ag58
ag58
ag58
ag58
ag58
ag58
ag58
ag58
ag58
ag58
ag58
ag58
ag58
ag58
ag58
ag58
ag58
ag58
ag58
ag58
ag58
ag58
ag58
ag58
ag58
ag58
ag58
ag58
ag58
ag58
ag58
ag58
ag58
ag58
ag58
ag58
ag58
ag58
ag58
ag58
ag58
ag58
ag58
ag58
ag58
ag58
ag58
ag58
ag58
ag58
ag58
ag58
ag58
ag58
ag58
ag58
ag58
ag58
ag58
ag58
ag58
ag58
ag15
ag58
ag58
ag58
ag58
ag58
ag58
ag58
ag58
ag58
ag58
ag58
ag58
ag58
ag58
ag58
ag58
ag58
ag58
ag58
ag58
ag58
ag58
ag58
ag58
ag58
ag58
ag58
ag58
ag58
ag58
ag58
ag58
ag58
ag58
ag58
ag58
ag58
ag58
ag58
ag58
ag58
ag58
ag58
ag58
ag58
ag58
ag58
ag58
ag58
ag58
ag58
ag58
ag58
ag58
ag58
ag58
ag58
ag58
ag58
ag58
ag58
ag58
ag58
ag58
ag58
ag58
ag58
ag58
ag58
ag58
ag58
ag58
ag58
ag58
ag58
ag58
ag58
ag58
ag58
ag58
ag58
ag58
ag58
ag58
ag58
ag58
ag58
ag58
ag58
ag58
ag58
ag58
ag58
ag58
ag58
ag58
ag58
ag58
ag58
ag58
ag58
ag58
ag58
ag58
ag58
ag58
ag58
ag58
ag58
ag58
ag58
ag58
ag58
ag58
ag58
ag58
ag58
ag58
ag58
ag58
ag58
ag58
ag58
ag58
ag58
ag58
ag58
ag58
ag58
ag58
ag58
ag58
ag58
ag58
ag58
ag58
ag58
ag58
ag58
ag58
ag58
ag58
ag58
ag58
ag58
ag58
ag58
ag58
ag58
ag58
ag58
ag58
ag58
ag58
ag58
ag58
ag58
ag58
ag58
ag58
ag58
ag58
ag58
aS'eye'
p59
ag59
ag59
ag59
ag59
ag59
ag59
ag59
ag59
ag59
ag59
ag59
ag59
ag59
ag59
ag59
ag59
ag59
ag59
ag59
ag59
ag59
ag59
ag59
ag59
ag59
ag59
ag59
ag59
ag59
ag59
ag59
ag59
ag59
ag59
ag59
ag59
ag59
ag59
ag59
ag59
ag59
ag59
ag59
ag59
ag59
ag59
ag59
ag59
ag59
ag59
ag59
ag59
ag59
ag59
ag59
ag59
ag59
ag59
ag59
ag59
ag59
ag59
ag59
ag59
ag59
ag59
ag59
ag59
ag59
ag59
ag59
ag59
ag59
ag59
ag59
ag59
ag59
ag59
ag59
ag59
ag59
ag59
ag59
ag59
ag59
ag59
ag59
ag59
ag59
ag59
ag59
ag59
ag59
ag59
ag59
ag59
ag59
ag59
ag59
ag59
ag59
ag59
ag59
ag59
ag59
ag59
ag59
ag59
ag59
ag59
ag59
ag59
ag59
ag59
ag59
ag59
ag59
ag59
ag59
ag59
ag59
ag59
ag59
ag59
ag59
ag59
ag59
ag59
ag59
ag59
ag59
ag59
ag59
ag59
ag59
ag59
ag59
ag59
ag59
ag59
ag59
ag59
ag59
ag59
ag59
ag59
ag59
ag59
ag59
ag59
ag59
ag59
ag59
ag59
ag59
ag59
ag59
ag59
ag59
ag59
ag59
ag59
ag59
ag59
ag59
ag59
ag59
ag59
ag59
ag59
ag59
ag59
ag59
ag59
ag59
ag59
ag59
ag59
ag59
ag59
ag59
ag59
ag59
ag59
ag59
ag59
ag59
ag59
ag59
ag59
ag59
ag59
ag59
ag59
ag59
ag59
ag59
ag59
ag59
ag59
ag59
ag59
ag59
ag59
ag59
ag59
ag59
ag59
ag59
ag59
ag59
ag59
ag59
ag59
ag59
ag59
ag59
ag59
ag59
ag59
ag59
ag59
ag59
ag59
ag59
ag59
ag59
ag59
ag59
ag59
ag59
ag59
ag59
ag59
ag59
ag59
ag59
ag59
ag59
ag59
ag59
ag59
ag59
ag59
ag59
ag59
ag59
ag59
ag59
ag59
ag59
ag59
ag59
ag59
ag59
ag59
ag59
ag59
ag59
ag59
ag59
ag59
ag59
ag59
ag59
ag59
ag59
ag59
ag59
ag59
ag59
ag59
ag59
ag59
ag59
aS'bite'
p60
ag60
ag60
ag60
ag60
ag60
ag60
ag60
ag60
ag60
ag60
ag60
ag60
ag60
ag60
ag60
ag60
ag60
ag60
ag60
ag60
ag60
ag60
ag60
ag60
ag60
ag60
ag60
ag60
ag60
ag60
ag60
ag60
ag60
ag60
ag60
ag60
ag60
ag60
ag60
ag60
ag60
ag60
ag60
ag60
ag60
ag60
ag60
ag60
ag60
ag60
ag60
ag60
ag60
ag60
ag60
ag60
ag60
ag60
ag60
ag60
ag60
ag60
ag60
ag60
ag60
ag60
ag60
ag60
ag60
ag60
ag60
ag60
ag60
ag60
ag60
ag60
ag60
ag60
ag60
ag60
ag60
ag60
ag60
ag60
ag60
ag60
ag60
ag60
ag60
ag60
ag60
ag60
ag60
ag60
ag60
ag60
ag60
ag60
ag60
ag60
ag60
ag60
ag60
ag60
ag60
ag60
ag60
ag60
ag60
ag60
ag60
ag60
ag60
ag60
ag60
ag60
ag60
ag60
ag60
ag60
ag60
ag60
ag60
ag60
ag60
ag60
ag60
ag60
ag60
ag60
ag60
ag3
ag60
ag60
ag3
ag3
ag3
ag3
ag60
ag60
ag60
ag60
ag60
ag60
ag60
ag60
ag60
ag60
ag60
ag60
ag60
ag60
ag60
ag60
ag60
ag60
ag60
ag60
ag60
ag60
ag60
ag60
ag60
ag60
ag60
ag60
ag60
ag60
ag60
ag60
ag60
ag60
ag60
ag60
ag60
ag60
ag60
ag60
ag60
ag60
ag60
ag60
ag60
ag60
ag60
ag60
ag60
ag60
ag60
ag60
ag60
ag60
ag60
ag60
ag60
ag60
ag60
ag60
ag60
ag60
ag60
ag60
ag60
ag60
ag3
ag3
ag3
ag3
ag60
ag60
ag60
ag60
ag60
ag60
ag60
ag60
ag60
ag60
ag60
ag60
ag3
ag3
ag3
ag60
ag3
ag3
ag60
ag3
ag60
ag60
aS'two'
p61
ag61
ag61
ag61
ag61
ag61
ag61
ag61
ag61
ag61
ag61
ag61
ag61
ag61
ag61
ag61
ag61
ag61
ag61
ag61
ag61
ag61
ag49
ag61
ag61
ag61
ag61
ag61
ag61
ag61
ag61
ag61
ag61
ag61
ag61
ag61
ag61
ag61
ag61
ag61
ag61
ag61
ag61
ag61
ag61
ag61
ag61
ag61
ag61
ag61
ag61
ag61
ag61
ag61
ag61
ag61
ag61
ag61
ag61
ag61
ag61
ag61
ag61
ag61
ag61
ag61
ag61
ag61
ag61
ag61
ag61
ag61
ag61
ag61
ag61
ag61
ag61
ag61
ag61
ag61
ag61
ag61
ag61
ag61
ag61
ag61
ag61
ag61
ag61
ag61
ag61
ag61
ag61
ag61
ag61
ag61
ag61
ag61
ag61
ag61
ag61
ag61
ag61
ag61
ag61
ag61
ag61
ag61
ag61
ag61
ag61
ag61
ag61
ag61
ag61
ag61
ag61
ag61
ag61
ag61
ag61
ag61
ag61
ag61
ag61
ag61
ag61
ag61
ag61
ag61
ag61
ag61
ag61
ag61
ag61
ag61
ag61
ag61
ag61
ag61
ag61
ag61
ag61
ag61
ag61
ag61
ag61
ag61
ag61
ag61
ag61
ag61
ag61
ag61
ag61
ag61
ag61
ag61
ag61
ag61
ag61
ag61
ag61
ag61
ag61
ag61
ag61
ag61
ag61
ag61
ag61
ag61
ag61
ag61
ag61
ag61
ag61
ag61
ag61
ag61
ag61
ag61
ag61
ag61
ag61
ag61
ag61
ag61
ag61
ag61
ag61
ag61
ag61
ag61
ag61
ag61
ag61
ag61
ag61
ag61
ag61
ag61
ag61
ag61
ag61
ag61
ag61
ag61
ag61
ag61
ag61
ag61
ag61
ag61
ag61
ag61
ag61
ag61
ag61
ag61
ag61
ag61
ag61
ag61
ag61
ag61
ag61
ag61
ag61
ag61
ag61
ag61
ag61
ag61
ag61
ag61
ag61
ag61
ag61
ag61
ag61
ag61
ag61
ag61
ag61
ag61
ag61
ag61
ag61
ag61
ag61
ag61
ag61
ag61
ag61
ag61
ag61
ag61
ag61
ag61
ag61
ag61
ag61
ag61
ag61
ag61
ag61
ag61
ag61
ag61
ag61
ag61
ag61
ag61
ag61
ag61
aS'long'
p62
ag62
ag62
ag62
ag62
ag62
ag62
ag62
ag62
ag62
ag62
ag62
ag62
ag62
ag62
ag62
ag62
ag62
ag62
ag62
ag62
ag62
ag62
ag62
ag62
ag62
ag62
ag62
ag62
ag62
ag62
ag62
ag62
ag62
ag62
ag62
ag62
ag62
ag62
ag62
ag62
ag62
ag62
ag62
ag62
ag62
ag62
ag62
ag62
ag62
ag62
ag62
ag62
ag62
ag62
ag62
ag62
ag62
ag62
ag62
ag62
ag62
ag62
ag62
ag62
ag62
ag62
ag62
ag62
ag62
ag62
ag62
ag62
ag62
ag62
ag62
ag62
ag62
ag62
ag62
ag62
ag62
ag62
ag62
ag62
ag62
ag62
ag62
ag62
ag62
ag62
ag62
ag62
ag62
ag62
ag62
ag62
ag62
ag62
ag62
ag62
ag62
ag62
ag62
ag62
ag62
ag62
ag62
ag62
ag62
ag62
ag62
ag62
ag62
ag62
ag62
ag62
ag62
ag62
ag62
ag62
ag62
ag62
ag62
ag62
ag62
ag62
ag62
ag62
ag62
ag62
ag62
ag62
ag62
ag62
ag62
ag62
ag62
ag62
ag18
ag62
ag62
ag62
ag62
ag62
ag62
ag62
ag62
ag62
ag62
ag62
ag62
ag62
ag62
ag62
ag62
ag62
ag62
ag62
ag62
ag62
ag62
ag62
ag62
ag62
ag62
ag62
ag62
ag62
ag62
ag62
ag62
ag62
ag62
ag62
ag62
ag62
ag62
ag62
ag62
ag62
ag62
ag62
ag62
ag62
ag62
ag62
ag62
ag62
ag62
ag62
ag62
ag62
ag62
ag62
ag62
ag62
ag62
ag62
ag62
ag62
ag62
ag62
ag62
ag62
ag62
ag62
ag62
ag62
ag62
ag62
ag62
ag62
ag62
ag62
ag62
ag62
ag62
ag62
ag62
ag62
ag62
ag62
ag62
ag62
ag62
ag62
ag62
ag62
ag62
ag62
ag62
ag62
ag62
ag62
ag62
ag62
ag62
ag62
ag62
ag62
ag62
ag62
ag62
ag62
ag62
ag62
ag62
ag62
ag62
ag62
ag62
ag62
ag62
ag62
ag62
ag62
ag62
ag62
ag62
ag62
ag62
ag62
ag62
ag62
ag62
ag17
ag62
ag62
ag62
ag62
ag62
ag62
ag62
ag62
ag62
ag37
ag37
ag37
ag37
ag37
ag37
ag37
ag37
ag37
ag37
ag37
ag37
ag37
ag37
ag37
ag37
ag37
ag37
ag37
ag37
ag37
ag37
ag37
ag37
ag37
ag37
ag37
ag37
ag37
ag37
ag37
ag37
ag37
ag37
ag37
ag37
ag37
ag37
ag37
ag37
ag37
ag37
ag37
ag37
ag37
ag37
ag37
ag37
ag37
ag37
ag37
ag37
ag37
ag37
ag37
ag37
ag37
ag37
ag37
ag37
ag37
ag37
ag37
ag37
ag37
ag37
ag37
ag37
ag37
ag37
ag37
ag37
ag37
ag37
ag37
ag37
ag37
ag37
ag37
ag37
ag37
ag37
ag37
ag37
ag37
ag37
ag37
ag37
ag37
ag37
ag37
ag37
ag37
ag37
ag37
ag37
ag37
ag37
ag37
ag37
ag37
ag37
ag37
ag37
ag37
ag37
ag37
ag37
ag37
ag37
ag37
ag37
ag37
ag37
ag37
ag37
ag37
ag37
ag37
ag37
ag37
ag37
ag37
ag37
ag37
ag37
ag37
ag37
ag37
ag37
ag37
ag37
ag37
ag37
ag37
ag37
ag37
ag37
ag37
ag37
ag37
ag37
ag37
ag37
ag37
ag37
ag37
ag37
ag37
ag37
ag37
ag37
ag37
ag37
ag37
ag37
ag37
ag37
ag37
ag37
ag37
ag37
ag37
ag37
ag37
ag37
ag37
ag37
ag37
ag37
ag37
ag37
ag37
ag37
ag37
ag37
ag37
ag37
ag37
ag37
ag37
ag37
ag37
ag37
ag37
ag37
ag37
ag37
ag37
ag37
ag37
ag37
ag37
ag37
ag37
ag37
ag37
ag37
ag37
ag37
ag37
ag37
ag37
ag37
ag37
ag37
ag37
ag37
ag37
ag37
ag37
ag37
ag37
ag37
ag37
ag37
ag37
ag37
ag37
ag37
ag37
ag37
ag37
ag37
ag37
ag37
ag37
ag37
ag37
ag37
ag37
ag37
ag37
ag37
ag37
ag37
ag37
ag37
ag37
ag37
ag37
ag37
ag37
ag37
ag37
ag37
ag37
ag37
ag37
ag37
ag37
ag37
ag37
ag37
ag37
ag37
ag37
ag37
ag37
ag37
ag37
ag37
ag37
ag37
ag37
ag37
ag37
ag37
ag37
ag37
ag37
ag37
ag37
ag37
ag37
ag37
aS'head'
p63
ag63
ag63
ag63
ag63
ag63
ag63
ag63
ag63
ag63
ag63
ag63
ag63
ag63
ag63
ag63
ag63
ag63
ag63
ag63
ag63
ag63
ag63
ag63
ag63
ag63
ag12
ag63
ag63
ag12
ag12
ag63
ag63
ag63
ag63
ag63
ag63
ag63
ag63
ag63
ag63
ag63
ag63
ag63
ag63
ag63
ag63
ag63
ag63
ag63
ag63
ag63
ag63
ag63
ag63
ag63
ag63
ag63
ag63
ag63
ag63
ag63
ag63
ag63
ag63
ag63
ag63
ag63
ag63
ag63
ag63
ag63
ag63
ag63
ag63
ag63
ag63
ag63
ag63
ag63
ag63
ag63
ag63
ag63
ag63
ag63
ag63
ag63
ag63
ag63
ag63
ag63
ag63
ag63
ag63
ag63
ag63
ag63
ag63
ag63
ag63
ag63
ag63
ag63
ag63
ag63
ag63
ag63
ag63
ag63
ag63
ag63
ag63
ag63
ag63
ag63
ag63
ag63
ag63
ag12
ag12
ag63
ag63
ag63
ag63
ag63
ag63
ag63
ag63
ag63
ag63
ag63
ag63
ag63
ag63
ag63
ag63
ag63
ag63
ag63
ag63
ag63
ag63
ag63
ag63
ag63
ag63
ag63
ag63
ag63
ag63
ag63
ag63
ag63
ag63
ag63
ag63
ag63
ag63
ag63
ag63
ag63
ag12
ag63
ag63
ag63
ag63
ag63
ag63
ag63
ag63
ag63
ag63
ag63
ag63
ag63
ag63
ag63
ag63
ag63
ag63
ag63
ag63
ag63
ag63
ag63
ag63
ag63
ag63
ag63
ag63
ag63
ag63
ag63
ag63
ag63
ag63
ag63
ag63
ag63
ag63
ag63
ag63
ag63
ag63
ag63
ag63
ag63
ag63
ag63
ag63
ag63
ag63
ag63
ag63
ag63
ag63
ag63
ag63
ag63
ag63
ag63
ag63
ag63
ag63
ag63
ag63
ag63
ag63
ag63
ag63
ag63
ag63
ag63
ag63
ag63
ag63
ag63
ag63
ag63
ag63
ag63
ag63
ag63
ag63
ag63
ag63
ag63
ag63
ag63
ag63
ag63
ag63
aS'that'
p64
ag64
ag64
ag64
ag64
ag64
ag64
ag64
ag64
ag64
ag64
ag64
ag64
ag64
ag64
ag64
ag64
ag64
ag64
ag64
ag64
ag64
ag64
ag64
ag64
ag64
ag64
ag64
ag64
ag64
ag64
ag64
ag64
ag64
ag64
ag64
ag64
ag64
ag64
ag64
ag64
ag64
ag64
ag64
ag64
ag64
ag64
ag64
ag64
ag64
ag64
ag64
ag64
ag64
ag64
ag64
ag64
ag64
ag64
ag64
ag64
ag64
ag64
ag64
ag64
ag64
ag64
ag64
ag64
ag64
ag64
ag64
ag64
ag64
ag64
ag64
ag64
ag64
ag64
ag64
ag64
ag64
ag64
ag64
ag64
ag64
ag64
ag64
ag64
ag64
ag64
ag64
ag64
ag64
ag64
ag64
ag64
ag64
ag64
ag64
ag64
ag64
ag64
ag64
ag64
ag64
ag64
ag64
ag64
ag64
ag64
ag64
ag64
ag64
ag64
ag64
ag64
ag64
ag64
ag64
ag64
ag64
ag64
ag64
ag64
ag64
ag64
ag64
ag64
ag64
ag64
ag64
ag64
ag64
ag64
ag64
ag64
ag64
ag64
ag64
ag64
ag64
ag64
ag64
ag64
ag64
ag64
ag64
ag64
ag64
ag64
ag64
ag64
ag64
ag64
ag64
ag64
ag64
ag64
ag64
ag64
ag64
ag64
ag64
ag64
ag64
ag64
ag64
ag64
ag64
ag64
ag64
ag64
ag64
ag64
ag64
ag64
ag64
ag64
ag64
ag64
ag64
ag64
ag64
ag64
ag64
ag64
ag64
ag64
ag64
ag64
ag64
ag64
ag64
ag64
ag64
ag64
ag64
ag64
ag64
ag64
ag64
ag64
ag64
ag64
ag64
ag64
ag64
ag64
ag64
ag64
ag64
ag64
ag64
ag64
ag64
ag64
ag64
ag64
ag64
ag64
ag64
ag64
ag64
ag64
ag64
ag64
ag64
ag64
ag64
ag64
ag41
aS'fire'
p65
ag65
ag65
ag65
ag65
ag41
ag65
ag65
ag65
ag65
ag65
ag65
ag65
ag65
ag65
ag65
ag65
ag65
ag41
ag41
ag41
ag65
ag65
ag65
ag65
ag65
ag65
ag41
ag65
ag65
ag65
ag65
ag65
ag65
ag65
ag65
ag65
ag65
ag65
ag65
ag41
ag41
ag41
ag65
ag65
ag65
ag65
ag65
ag65
ag65
ag65
ag65
ag65
ag65
ag65
ag65
ag65
ag65
ag65
ag65
ag65
ag65
ag65
ag65
ag65
ag65
ag65
ag65
ag65
ag65
ag65
ag65
ag65
ag65
ag65
ag65
ag65
ag65
ag65
ag65
ag65
ag65
ag65
ag65
ag65
ag65
ag65
ag65
ag65
ag65
ag65
ag65
ag65
ag65
ag65
ag65
ag65
ag65
ag65
ag65
ag65
ag65
ag65
ag65
ag65
ag65
ag65
ag65
ag65
ag65
ag65
ag65
ag65
ag65
ag65
ag65
ag65
ag65
ag65
ag65
ag65
ag65
ag65
ag65
ag65
ag65
ag65
ag65
ag65
ag65
ag65
ag65
ag65
ag65
ag65
ag65
ag65
ag65
ag65
ag65
ag65
ag65
ag65
ag65
ag65
ag65
ag65
ag65
ag65
ag65
ag65
ag41
ag41
ag41
ag65
ag65
ag65
ag65
ag65
ag65
ag65
ag65
ag65
ag65
ag65
ag65
ag65
ag65
ag65
ag65
ag65
ag65
ag65
ag65
ag65
ag65
ag65
ag65
ag65
ag65
ag65
ag65
ag65
ag65
ag65
ag65
ag65
ag65
ag65
ag65
ag65
ag65
ag65
ag65
ag65
ag65
ag65
ag65
ag65
ag65
ag65
ag65
ag65
ag65
ag65
ag65
ag65
ag65
ag65
ag65
ag65
ag65
ag65
ag65
ag65
ag65
ag65
ag65
ag65
ag65
ag65
ag65
ag65
ag65
ag65
ag65
ag65
ag65
ag65
ag65
ag65
ag65
ag65
ag65
ag65
ag65
ag65
ag65
ag65
ag65
ag65
ag65
ag65
ag65
ag65
ag65
ag65
ag65
ag65
ag65
ag65
ag65
ag65
ag65
ag65
ag65
ag65
ag65
ag65
ag65
ag65
ag65
ag65
ag65
ag65
ag65
ag65
ag65
ag65
ag41
ag41
ag65
ag41
ag65
ag65
aS'hear'
p66
ag66
ag66
ag66
ag66
ag66
ag66
ag66
ag66
ag66
ag66
ag66
ag66
ag66
ag66
ag66
ag66
ag66
ag66
ag66
ag66
ag66
ag66
ag66
ag66
ag66
ag66
ag66
ag66
ag66
ag66
ag66
ag66
ag66
ag66
ag66
ag66
ag66
ag66
ag66
ag66
ag66
ag66
ag66
ag66
ag66
ag66
ag66
ag66
ag66
ag66
ag66
ag66
ag66
ag66
ag66
ag66
ag66
ag66
ag66
ag66
ag66
ag66
ag66
ag66
ag66
ag66
ag66
ag66
ag66
ag66
ag66
ag66
ag66
ag66
ag66
ag66
ag66
ag66
ag66
ag66
ag66
ag66
ag66
ag66
ag66
ag66
ag66
ag66
ag66
ag66
ag66
ag66
ag66
ag66
ag66
ag66
ag66
ag66
ag66
ag66
ag66
ag66
ag66
ag66
ag66
ag66
ag66
ag66
ag66
ag66
ag66
ag66
ag66
ag66
ag66
ag66
ag66
ag66
ag66
ag66
ag66
ag66
ag66
ag66
ag66
ag66
ag66
ag66
ag66
ag66
ag66
ag66
ag66
ag66
ag66
ag66
ag66
ag66
ag66
ag66
ag66
ag66
ag66
ag66
ag66
ag66
ag66
ag66
ag66
ag66
ag66
ag66
ag66
ag66
ag66
ag66
ag66
ag66
ag66
ag66
ag66
ag66
ag66
ag66
ag66
ag66
ag66
ag66
ag66
ag66
ag66
ag66
ag66
ag66
ag66
ag66
ag66
ag66
ag66
ag66
ag66
ag66
ag66
ag66
ag66
ag66
ag66
ag66
ag66
ag66
ag66
ag66
ag66
ag66
ag66
ag66
ag66
ag66
ag66
ag66
ag66
ag66
ag66
ag66
ag66
ag66
ag66
ag66
ag66
ag66
ag66
ag66
ag66
ag66
ag66
ag66
ag66
ag66
ag66
ag66
ag66
ag66
ag66
ag66
ag66
ag66
ag66
ag66
ag66
ag66
ag66
ag66
ag66
ag66
ag66
ag66
ag66
ag66
ag66
ag66
ag66
ag66
ag66
ag66
ag66
ag66
ag66
ag66
ag66
ag66
ag66
ag66
aS'liver'
p67
ag67
ag67
ag67
ag67
ag67
ag67
ag67
ag67
ag67
ag67
ag67
ag67
ag67
ag67
ag67
ag67
ag67
ag67
ag67
ag67
ag67
ag67
ag67
ag8
ag67
ag67
ag67
ag67
ag67
ag67
ag67
ag67
ag67
ag67
ag67
ag67
ag67
ag67
ag67
ag67
ag67
ag67
ag67
ag67
ag67
ag67
ag67
ag67
ag67
ag67
ag67
ag67
ag67
ag67
ag67
ag67
ag67
ag67
ag67
ag67
ag67
ag67
ag67
ag67
ag67
ag67
ag67
ag67
ag67
ag67
ag67
ag67
ag67
ag67
ag67
ag67
ag67
ag67
ag67
ag67
ag67
ag67
ag67
ag67
ag67
ag67
ag67
ag67
ag67
ag67
ag67
ag67
ag67
ag67
ag67
ag67
ag67
ag67
ag67
ag67
ag67
ag67
ag67
ag67
ag67
ag67
ag67
ag67
ag67
ag67
ag67
ag67
ag67
ag67
ag67
ag67
ag67
ag67
ag67
ag67
ag67
ag67
ag67
ag67
ag67
ag67
ag67
ag67
ag67
ag67
ag67
ag67
ag67
ag67
ag67
ag67
ag67
ag67
ag67
ag67
ag67
ag67
ag67
ag67
ag67
ag67
ag67
ag67
ag67
ag67
ag67
ag67
ag67
ag67
ag67
ag67
ag67
ag67
ag67
ag67
ag67
ag67
ag67
ag67
ag67
ag67
ag67
ag67
ag67
ag67
ag67
ag67
ag67
ag67
ag67
ag67
ag67
ag67
ag67
ag67
ag67
ag67
ag67
ag67
ag67
ag67
ag67
ag67
ag67
ag67
ag67
ag67
ag67
ag67
ag67
ag67
ag67
ag67
ag67
ag67
ag67
ag67
ag67
ag67
ag67
ag67
ag67
ag67
ag67
ag67
ag67
ag67
ag67
ag67
ag67
ag67
ag67
ag67
ag67
ag67
ag67
ag67
ag67
ag67
ag67
ag67
ag67
ag67
ag67
ag67
ag67
ag67
ag67
ag67
ag67
ag67
ag67
ag67
ag67
ag67
ag67
ag67
ag67
ag67
ag67
ag67
ag67
ag67
ag67
ag67
ag67
ag67
aS'ear'
p68
ag68
ag68
ag68
ag68
ag68
ag68
ag68
ag68
ag68
ag68
ag68
ag68
ag68
ag68
ag68
ag68
ag68
ag68
ag68
ag68
ag68
ag68
ag68
ag68
ag68
ag68
ag68
ag68
ag68
ag68
ag68
ag68
ag68
ag68
ag68
ag68
ag68
ag68
ag68
ag68
ag68
ag68
ag68
ag68
ag68
ag68
ag68
ag68
ag68
ag68
ag68
ag68
ag68
ag68
ag68
ag68
ag68
ag68
ag68
ag68
ag68
ag68
ag68
ag68
ag68
ag68
ag68
ag68
ag68
ag68
ag68
ag68
ag68
ag68
ag68
ag68
ag68
ag68
ag68
ag68
ag68
ag68
ag68
ag68
ag68
ag68
ag68
ag68
ag68
ag68
ag68
ag68
ag68
ag68
ag68
ag68
ag68
ag68
ag68
ag68
ag68
ag68
ag68
ag68
ag68
ag68
ag68
ag68
ag68
ag68
ag68
ag68
ag68
ag68
ag68
ag68
ag68
ag68
ag68
ag68
ag68
ag68
ag68
ag68
ag68
ag68
ag68
ag68
ag68
ag68
ag68
ag68
ag68
ag68
ag68
ag68
ag68
ag68
ag68
ag68
ag68
ag68
ag68
ag68
ag68
ag68
ag68
ag68
ag68
ag68
ag68
ag68
ag68
ag68
ag68
ag68
ag68
ag68
ag68
ag68
ag68
ag68
ag68
ag68
ag68
ag68
ag68
ag68
ag68
ag68
ag68
ag68
ag51
ag68
ag68
ag68
ag68
ag68
ag68
ag68
ag68
ag68
ag68
ag68
ag68
ag68
ag68
ag68
ag68
ag68
ag68
ag68
ag68
ag68
ag68
ag68
ag68
ag68
ag68
ag68
ag68
ag68
ag68
ag68
ag68
ag68
ag68
ag68
ag68
ag68
ag68
ag68
ag68
ag68
ag68
ag68
ag68
ag68
ag68
ag68
ag68
ag68
ag68
ag68
ag68
ag68
ag68
ag68
ag68
ag68
ag68
ag68
ag68
ag68
ag68
ag68
ag68
ag68
ag68
ag68
ag68
ag68
ag68
ag68
ag68
ag68
ag68
ag68
ag68
ag68
ag68
ag68
ag68
ag68
ag68
ag68
ag68
ag68
ag68
ag68
ag68
ag68
ag68
ag68
ag68
ag68
ag68
ag68
ag68
ag68
ag68
ag68
ag68
ag68
ag68
aS'feather'
p69
ag69
ag69
ag69
ag69
ag69
ag69
ag69
ag69
ag69
ag69
ag69
ag69
ag69
ag69
ag69
ag69
ag69
ag69
ag69
ag69
ag69
ag69
ag69
ag69
ag69
ag69
ag69
ag69
ag69
ag69
ag69
ag69
ag69
ag69
ag69
ag69
ag69
ag69
ag69
ag69
ag69
ag69
ag69
ag69
ag69
ag69
ag69
ag69
ag69
ag69
ag69
ag69
ag69
ag69
ag69
ag69
ag69
ag69
ag69
ag69
ag69
ag69
ag69
ag69
ag69
ag69
ag12
ag69
ag69
ag12
ag69
ag69
ag12
ag69
ag12
ag69
ag69
ag69
ag12
ag12
ag12
ag69
ag69
ag69
ag12
ag69
ag69
ag69
ag69
ag69
ag69
ag69
ag69
ag69
ag69
ag69
ag69
ag69
ag69
ag69
ag69
ag69
ag69
ag69
ag69
ag69
ag12
ag69
ag69
ag12
ag69
ag12
ag69
ag69
ag69
ag12
ag12
ag12
ag69
ag69
ag69
ag12
ag69
ag69
ag69
ag69
ag69
ag69
ag69
ag69
ag69
ag69
ag69
ag69
ag69
ag69
ag69
ag69
ag69
ag69
ag69
ag69
ag69
ag69
ag69
ag69
ag69
ag69
ag69
ag69
ag69
ag69
ag69
ag69
ag69
ag69
ag69
ag12
ag69
ag12
ag69
ag69
ag69
ag12
ag12
ag12
ag69
ag69
ag69
ag12
ag69
ag69
ag69
ag69
ag69
ag69
ag69
ag69
ag69
ag69
ag69
ag69
ag69
ag69
ag69
ag69
ag69
ag69
ag69
ag69
ag69
ag69
ag69
ag69
ag69
ag69
ag69
ag69
ag12
ag69
ag69
ag69
ag12
ag12
ag12
ag69
ag69
ag69
ag12
ag69
ag69
ag69
ag69
ag69
ag69
ag69
ag69
ag69
ag69
ag69
ag69
ag69
ag69
ag12
ag12
ag12
ag69
ag69
ag69
ag12
ag69
ag69
ag69
ag69
ag69
ag69
ag69
ag69
ag69
ag69
ag69
ag69
ag69
ag69
ag69
ag69
ag69
ag69
ag69
ag69
ag69
ag69
ag69
ag69
ag12
ag12
ag69
ag69
ag69
ag12
ag12
ag69
ag69
ag69
ag12
ag69
ag69
ag69
ag12
ag69
ag69
ag69
ag69
ag69
ag69
aS'fly'
p70
ag70
ag70
ag70
ag70
ag70
ag70
ag70
ag70
ag70
ag70
ag70
ag70
ag70
ag70
ag70
ag70
ag70
ag70
ag70
ag70
ag70
ag70
ag70
ag70
ag70
ag70
ag70
ag70
ag70
ag70
ag70
ag70
ag70
ag70
ag70
ag70
ag70
ag70
ag70
ag70
ag70
ag70
ag70
ag70
ag70
ag70
ag70
ag70
ag70
ag70
ag70
ag70
ag70
ag70
ag70
ag70
ag70
ag70
ag70
ag70
ag70
ag70
ag70
ag70
ag70
ag70
ag70
ag70
ag70
ag70
ag70
ag70
ag70
ag70
ag70
ag70
ag70
ag70
ag70
ag70
ag70
ag70
ag70
ag70
ag70
ag70
ag70
ag70
ag70
ag70
ag70
ag70
ag70
ag70
ag70
ag70
ag70
ag70
ag70
ag70
ag70
ag70
ag70
ag70
ag70
ag70
ag70
ag70
ag70
ag70
ag70
ag70
ag70
ag70
ag70
ag70
ag70
ag70
ag70
ag70
ag70
ag70
ag70
ag70
ag70
ag70
ag70
ag70
ag70
ag70
ag70
ag70
ag70
ag70
ag70
ag70
ag70
ag70
ag70
ag70
ag70
ag70
ag70
ag70
ag70
ag70
ag70
ag70
ag70
ag70
ag70
ag70
ag70
ag70
ag70
ag70
ag70
ag70
ag70
ag70
ag70
ag70
ag70
ag70
ag70
ag70
ag70
ag70
ag70
ag70
ag70
ag70
ag70
ag70
ag70
ag70
ag70
ag70
ag70
ag70
ag70
ag70
ag70
ag70
ag70
ag70
ag70
ag70
ag70
ag70
ag70
ag70
ag70
ag70
ag70
ag70
ag70
ag70
ag70
ag70
ag70
ag70
ag70
ag70
ag70
ag70
ag70
ag70
ag70
ag70
ag70
ag70
ag70
ag70
ag70
ag70
ag70
ag70
ag70
ag70
ag70
ag70
ag70
ag70
ag70
ag70
ag70
ag70
ag70
ag70
aS'this'
p71
ag71
ag71
ag71
ag71
ag71
ag71
ag71
ag71
ag71
ag71
ag71
ag71
ag71
ag71
ag71
ag71
ag71
ag71
ag71
ag71
ag71
ag71
ag71
ag71
ag71
ag71
ag71
ag71
ag71
ag71
ag71
ag71
ag71
ag71
ag71
ag71
ag71
ag71
ag71
ag71
ag71
ag71
ag71
ag71
ag71
ag71
ag71
ag71
ag71
ag71
ag71
ag71
ag71
ag71
ag71
ag71
ag71
ag71
ag71
ag71
ag71
ag71
ag71
ag71
ag71
ag71
ag71
ag71
ag71
ag71
ag71
ag71
ag71
ag71
ag71
ag71
ag71
ag71
ag71
ag71
ag71
ag71
ag71
ag71
ag71
ag71
ag71
ag71
ag71
ag71
ag71
ag71
ag71
ag71
ag71
ag71
ag71
ag71
ag71
ag71
ag71
ag71
ag71
ag71
ag71
ag71
ag71
ag71
ag71
ag71
ag71
ag71
ag71
ag71
ag71
ag71
ag71
ag71
ag71
ag71
ag71
ag71
ag71
ag71
ag71
ag71
ag71
ag71
ag71
ag71
ag71
ag71
ag71
ag71
ag71
ag71
ag71
ag71
ag71
ag71
ag71
ag71
ag71
ag71
ag71
ag71
ag71
ag71
ag71
ag71
ag71
ag71
ag71
ag71
ag71
ag71
ag71
ag71
ag71
ag71
ag71
ag71
ag71
ag71
ag71
ag71
ag71
ag71
ag71
ag71
ag71
ag71
ag71
ag71
ag71
ag71
ag71
ag71
ag71
ag71
ag71
ag71
ag71
ag71
ag71
ag71
ag71
ag71
ag71
ag71
ag71
ag71
ag71
ag71
ag71
ag71
ag71
ag71
ag71
ag71
ag71
ag71
ag71
ag71
ag71
ag71
ag71
ag71
ag71
ag71
ag71
ag71
ag71
ag71
ag71
ag71
ag71
ag71
ag71
ag71
ag71
ag71
ag71
ag71
ag71
ag71
ag71
ag71
ag71
ag71
aS'tree'
p72
ag72
ag72
ag72
ag72
ag72
ag72
ag72
ag72
ag72
ag72
ag72
ag72
ag72
ag72
ag72
ag72
ag72
ag72
ag72
ag72
ag72
ag72
ag72
ag72
ag72
ag72
ag72
ag72
ag72
ag72
ag72
ag72
ag72
ag72
ag72
ag72
ag72
ag72
ag72
ag72
ag72
ag72
ag72
ag72
ag72
ag72
ag72
ag72
ag72
ag72
ag72
ag72
ag72
ag72
ag72
ag72
ag72
ag72
ag72
ag72
ag72
ag72
ag72
ag72
ag72
ag72
ag72
ag72
ag72
ag72
ag72
ag72
ag72
ag72
ag72
ag72
ag72
ag72
ag72
ag72
ag72
ag72
ag72
ag72
ag72
ag72
ag72
ag72
ag72
ag72
ag72
ag72
ag72
ag72
ag72
ag72
ag72
ag72
ag72
ag72
ag72
ag72
ag72
ag72
ag72
ag72
ag72
ag72
ag72
ag72
ag72
ag72
ag72
ag72
ag72
ag72
ag72
ag72
ag72
ag72
ag72
ag72
ag72
ag72
ag72
ag72
ag72
ag72
ag72
ag72
ag72
ag72
ag72
ag72
ag72
ag72
ag72
ag72
ag72
ag72
ag72
ag72
ag72
ag72
ag72
ag72
ag72
ag72
ag72
ag72
ag72
ag72
ag72
ag72
ag72
ag72
ag72
ag72
ag72
ag72
ag72
ag72
ag72
ag72
ag72
ag72
ag72
ag72
ag72
ag72
ag72
ag72
ag72
ag72
ag72
ag72
ag72
ag72
ag72
ag72
ag72
ag72
ag72
ag72
ag72
ag72
ag72
ag72
ag72
ag72
ag72
ag72
ag72
ag72
ag72
ag72
ag72
ag72
ag72
ag72
ag72
ag72
ag72
ag72
ag72
ag72
ag72
ag72
ag72
ag72
ag72
ag72
ag72
ag72
ag72
ag72
ag72
ag72
ag72
ag72
ag72
ag72
ag72
ag72
ag72
ag72
ag72
ag72
ag72
ag72
ag72
ag72
ag72
ag72
ag72
ag72
ag72
ag72
ag72
ag72
ag72
ag72
ag72
ag72
ag72
ag72
ag72
ag72
ag72
ag72
ag72
ag72
ag72
ag72
ag72
ag72
ag72
ag72
ag72
ag72
ag72
ag72
ag72
ag72
ag72
ag72
ag72
ag72
ag72
ag72
ag72
ag72
ag72
ag72
ag72
aS'seed'
p73
ag73
ag73
ag73
ag73
ag73
ag73
ag73
ag73
ag73
ag73
ag73
ag73
ag73
ag73
ag73
ag73
ag73
ag73
ag73
ag73
ag73
ag73
ag73
ag73
ag73
ag73
ag73
ag73
ag73
ag73
ag73
ag73
ag73
ag73
ag73
ag73
ag73
ag73
ag73
ag73
ag73
ag73
ag73
ag73
ag73
ag73
ag73
ag73
ag73
ag73
ag73
ag73
ag73
ag73
ag73
ag73
ag73
ag73
ag73
ag73
ag73
ag73
ag73
ag73
ag73
ag73
ag73
ag73
ag73
ag73
ag73
ag73
ag73
ag73
ag73
ag73
ag73
ag73
ag73
ag73
ag73
ag73
ag73
ag73
ag73
ag73
ag73
ag73
ag73
ag73
ag73
ag73
ag73
ag73
ag73
ag73
ag73
ag73
ag73
ag73
ag73
ag73
ag73
ag73
ag73
ag73
ag73
ag73
ag73
ag73
ag73
ag73
ag73
ag73
ag73
ag73
ag73
ag73
ag73
ag73
ag73
ag73
ag73
ag73
ag73
ag73
ag73
ag73
ag73
ag73
ag73
ag73
ag73
ag73
ag73
ag73
ag73
ag73
ag73
ag73
ag73
ag73
ag73
ag73
ag73
ag73
ag73
ag73
ag73
ag73
ag73
ag73
ag73
ag73
ag73
ag73
ag73
ag73
ag73
ag73
ag73
ag73
ag73
ag73
ag73
ag73
ag73
ag73
ag73
ag73
ag73
ag73
ag73
ag73
ag73
ag73
ag73
ag73
ag73
ag73
ag73
ag73
ag73
ag73
ag73
ag73
ag73
ag73
ag73
aS'root'
p74
ag74
ag74
ag74
ag74
ag74
ag74
ag74
ag74
ag74
ag74
ag74
ag74
ag74
ag74
ag74
ag74
ag74
ag74
ag74
ag74
ag74
ag74
ag74
ag74
ag74
ag74
ag74
ag74
ag74
ag74
ag74
ag74
ag74
ag74
ag74
ag74
ag74
ag74
ag74
ag74
ag74
ag74
ag74
ag74
ag74
ag74
ag74
ag74
ag74
ag74
ag74
ag74
ag74
ag74
ag74
ag74
ag74
ag74
ag74
ag74
ag74
ag74
ag74
ag74
ag74
ag74
ag74
ag74
ag74
ag74
ag74
ag74
ag74
ag74
ag74
ag74
ag74
ag74
ag74
ag74
ag74
ag74
ag74
ag74
ag74
ag74
ag74
ag74
ag74
ag74
ag74
ag74
ag74
ag74
ag74
ag74
ag74
ag74
ag74
ag74
ag74
ag74
ag74
ag74
ag74
ag74
ag74
ag74
ag74
ag74
ag74
ag74
ag74
ag74
ag74
ag74
ag74
ag74
ag74
ag74
ag74
ag74
ag74
ag74
ag74
ag74
ag74
ag74
ag74
ag74
ag74
ag74
ag74
ag74
ag74
ag74
ag74
ag74
ag74
ag74
ag74
ag74
ag74
ag74
ag74
ag74
ag74
ag74
ag74
ag74
ag74
ag74
ag74
ag74
ag74
ag74
ag74
ag74
ag74
ag74
ag74
ag74
ag74
ag74
ag74
ag74
ag74
ag74
ag74
ag74
ag74
ag74
ag74
ag74
ag74
ag74
ag74
ag74
ag74
ag74
ag74
ag74
ag74
ag74
ag74
ag74
ag74
ag74
ag74
ag74
ag74
ag74
ag74
ag74
ag74
ag74
ag74
ag74
ag74
ag74
ag74
ag74
ag74
ag74
ag74
ag74
ag74
ag74
ag74
ag74
ag74
ag74
ag74
ag74
ag74
ag74
ag74
ag74
ag74
ag74
ag74
ag74
ag74
ag74
ag74
ag74
ag74
ag74
ag74
ag74
aS'heart'
p75
ag75
ag75
ag75
ag75
ag75
ag75
ag75
ag75
ag75
ag75
ag75
ag75
ag75
ag75
ag75
ag75
ag75
ag75
ag75
ag75
ag75
ag75
ag75
ag75
ag75
ag75
ag75
ag75
ag75
ag75
ag75
ag75
ag75
ag75
ag75
ag75
ag75
ag75
ag75
ag75
ag75
ag75
ag75
ag75
ag75
ag75
ag75
ag75
ag75
ag75
ag75
ag75
ag75
ag75
ag75
ag75
ag75
ag75
ag75
ag75
ag75
ag75
ag75
ag75
ag75
ag75
aS'woman'
p76
ag75
ag75
ag75
ag75
ag75
ag75
ag75
ag75
ag75
ag75
ag75
ag75
ag75
ag75
ag75
ag75
ag75
ag75
ag75
ag75
ag75
ag75
ag75
ag75
ag75
ag75
ag75
ag75
ag75
ag75
ag75
ag75
ag75
ag75
ag75
ag75
ag75
ag75
ag75
ag75
ag75
ag75
ag75
ag75
ag75
ag75
ag75
ag75
ag75
ag75
ag75
ag75
ag75
ag75
ag75
ag75
ag75
ag75
ag75
ag75
ag75
ag75
ag75
ag75
ag75
ag75
ag75
ag75
ag75
ag75
ag75
ag75
ag75
ag75
ag75
ag75
ag75
ag75
ag75
ag75
ag75
ag75
ag75
ag75
ag75
ag75
ag75
ag75
ag75
ag75
ag75
ag75
ag75
ag75
ag75
ag75
ag75
ag75
ag75
ag75
ag75
ag75
ag75
ag75
ag75
ag75
ag75
ag75
ag75
ag75
ag75
ag75
ag75
ag75
ag75
ag75
ag75
ag75
ag75
ag75
ag75
ag75
ag75
ag75
ag75
ag75
ag75
ag75
ag75
ag75
ag75
ag75
ag75
ag75
ag75
ag75
ag75
ag75
ag75
ag75
ag75
ag75
ag75
ag75
ag75
ag75
ag75
ag75
ag75
ag75
ag75
ag75
ag75
ag75
ag75
ag75
ag75
ag75
ag75
ag75
ag75
ag75
ag75
aS'give'
p77
ag56
ag77
ag41
ag56
ag77
ag77
ag41
ag77
ag77
ag77
ag77
ag77
ag77
ag56
ag77
ag77
ag56
ag77
ag41
ag77
ag77
ag77
ag77
ag77
ag77
ag77
ag77
ag77
ag77
ag77
ag77
ag77
ag77
ag77
ag77
ag77
ag77
ag77
ag77
ag77
ag77
ag56
ag56
ag77
ag77
ag56
ag77
ag77
ag77
ag77
ag77
ag77
ag56
ag77
ag77
ag56
ag77
ag56
ag77
ag77
ag77
ag77
ag77
ag77
ag77
ag77
ag77
ag77
ag77
ag77
ag77
ag77
ag77
ag77
ag77
ag77
ag77
ag56
ag77
ag77
ag41
ag77
ag77
ag77
ag77
ag77
ag77
ag56
ag77
ag77
ag56
ag77
ag41
ag77
ag77
ag77
ag56
ag77
ag77
ag77
ag77
ag77
ag77
ag56
ag77
ag77
ag56
ag77
ag56
ag77
ag77
ag77
ag77
ag47
ag47
ag77
ag77
ag47
ag47
ag47
ag77
ag77
ag77
ag77
ag77
ag77
ag77
ag77
ag77
ag77
ag77
ag77
ag77
ag77
ag77
ag77
ag77
ag77
ag77
ag77
ag77
ag77
ag77
ag77
ag77
ag56
ag77
ag77
ag56
ag77
ag41
ag77
ag77
ag77
ag77
ag77
ag77
ag77
ag77
ag77
ag77
ag77
ag77
ag77
ag47
ag77
ag77
ag47
ag47
ag47
ag77
ag77
ag77
ag77
ag77
ag77
ag77
ag47
ag47
ag47
ag77
ag77
ag77
ag77
ag77
ag77
ag77
ag77
ag77
ag77
ag77
ag77
ag77
ag77
ag77
ag77
ag77
ag77
ag77
ag77
ag77
ag77
ag47
ag47
ag77
ag77
ag77
ag77
ag77
ag47
ag77
ag56
ag77
ag56
ag77
ag77
ag77
ag77
ag77
ag77
ag77
ag77
ag77
ag77
ag77
ag56
ag77
ag77
ag77
ag77
aS'say'
p78
ag78
ag78
ag78
ag21
ag78
ag78
ag21
ag78
ag78
ag78
ag78
ag78
ag78
ag78
ag78
ag78
ag78
ag21
ag78
ag78
ag78
ag78
ag78
ag78
ag78
ag78
ag78
ag78
ag78
ag78
ag78
ag78
ag78
ag78
ag78
ag78
ag78
ag78
ag78
ag78
ag78
ag78
ag78
ag78
ag78
ag78
ag78
ag78
ag78
ag78
ag78
ag78
ag78
ag78
ag78
ag78
ag78
ag78
ag78
ag78
ag78
ag78
ag78
ag78
ag78
ag78
ag78
ag78
ag78
ag78
ag78
ag78
ag78
ag78
ag78
ag78
ag78
ag78
ag78
ag78
ag78
ag78
ag78
ag78
ag78
ag78
ag78
ag78
ag78
ag78
ag78
ag78
ag78
ag78
ag78
ag78
ag21
ag78
ag78
ag78
ag78
ag78
ag78
ag78
ag78
ag78
ag78
ag21
ag78
ag78
ag78
ag78
ag78
ag78
ag78
ag78
ag78
ag78
ag78
ag78
ag78
ag78
ag78
ag78
ag78
ag78
ag78
ag78
ag78
ag78
ag78
ag78
ag78
ag78
ag78
ag78
ag78
ag78
ag78
ag78
ag78
ag78
ag78
ag78
ag78
ag78
ag78
ag78
ag78
ag21
ag78
ag78
ag78
ag78
ag78
ag78
ag78
ag78
ag78
ag78
ag78
ag78
ag78
ag78
ag78
ag78
ag78
ag78
ag78
ag78
ag78
ag78
ag78
ag78
ag78
ag78
ag78
ag78
ag78
ag78
ag78
ag78
ag78
ag78
ag78
ag78
ag78
ag78
ag78
ag78
ag78
ag78
ag78
ag78
ag78
ag78
ag78
ag78
ag78
ag78
ag78
ag78
ag78
ag78
ag78
ag78
ag78
ag78
ag78
ag78
ag78
ag78
ag78
ag78
ag78
ag78
ag78
ag78
ag78
ag78
ag78
ag78
ag78
ag78
ag78
ag78
ag78
ag78
ag78
ag78
ag76
ag76
ag76
ag76
ag76
ag76
ag76
ag76
ag76
ag76
ag76
ag76
ag76
ag76
ag76
ag76
ag76
ag76
ag76
ag76
ag76
ag76
ag76
ag76
ag76
ag76
ag76
ag76
ag76
ag76
ag76
ag76
ag76
ag76
ag76
ag76
ag76
ag76
ag76
ag76
ag76
ag76
ag76
ag76
ag76
ag76
ag76
ag76
ag76
ag76
ag76
ag76
ag76
ag76
ag76
ag76
ag76
ag76
ag76
ag76
ag76
ag76
ag76
ag76
ag76
ag76
ag76
ag76
ag76
ag76
ag76
ag76
ag76
ag76
ag76
ag76
ag76
ag76
ag76
ag76
ag76
ag76
ag76
ag76
ag76
ag76
ag76
ag76
ag76
ag76
ag76
ag76
ag76
ag76
ag76
ag76
ag76
ag76
ag76
ag76
ag76
ag76
ag76
ag76
ag76
ag76
ag76
ag76
ag76
ag76
ag76
ag76
ag76
ag76
ag76
ag76
ag76
ag76
ag76
ag76
ag76
ag76
ag76
ag76
ag76
ag76
ag76
ag76
ag76
ag76
ag76
ag76
ag76
ag76
ag76
ag76
ag76
ag76
ag76
ag76
ag76
ag76
ag76
ag76
ag76
ag76
ag76
ag76
ag76
ag76
ag76
ag76
ag76
ag76
ag76
ag76
ag76
ag76
ag76
ag76
ag76
ag76
ag76
ag76
ag76
ag76
ag76
ag76
ag76
ag76
ag76
ag76
ag76
ag76
ag76
ag76
ag76
ag76
ag76
ag76
ag76
ag76
ag76
ag76
ag76
ag76
ag76
ag76
ag76
ag76
ag76
ag76
ag76
ag76
ag76
ag76
ag76
ag76
ag76
ag76
ag76
ag76
ag76
ag76
ag76
ag76
ag76
ag76
ag76
ag76
ag76
ag76
ag76
ag76
ag76
ag76
ag76
ag76
ag76
ag76
ag76
ag76
ag76
ag76
ag76
ag76
ag76
ag76
ag76
ag76
ag76
ag76
ag76
ag76
ag76
ag76
ag76
ag76
ag76
ag76
ag76
ag76
ag76
ag76
ag76
ag76
ag76
ag76
ag76
ag76
ag76
ag76
ag76
ag76
ag76
ag76
ag76
ag76
ag76
ag76
ag76
ag76
ag76
ag76
ag76
ag76
ag76
ag76
ag76
ag76
ag76
ag76
ag76
ag76
ag76
ag76
aS'lie'
p79
ag79
ag79
ag79
ag79
ag79
ag79
ag79
ag79
ag79
ag79
ag79
ag79
ag79
ag79
ag79
ag79
ag79
ag79
ag79
ag79
ag79
ag79
ag79
ag79
ag79
ag79
ag79
ag79
ag79
ag79
ag79
ag79
ag79
ag79
ag79
ag79
ag79
ag79
ag79
ag79
ag79
ag79
ag79
ag79
ag79
ag79
ag79
ag79
ag79
ag79
ag79
ag79
ag79
ag79
ag79
ag79
ag79
ag79
ag79
ag79
ag79
ag79
ag79
ag79
ag79
ag79
ag79
ag79
ag79
ag79
ag79
ag79
ag79
ag79
ag79
ag79
ag79
ag79
ag79
ag79
ag79
ag79
ag79
ag79
ag79
ag79
ag79
ag79
ag79
ag79
ag79
ag79
ag79
ag79
ag79
ag79
ag79
ag79
ag79
ag79
ag79
ag79
ag79
ag79
ag79
ag79
ag79
ag79
ag79
ag79
ag79
ag79
ag79
ag79
ag79
ag79
ag79
ag79
ag79
ag79
ag79
ag79
ag79
ag79
ag79
ag79
ag79
ag79
ag79
ag79
ag79
ag79
ag79
ag79
ag79
ag79
ag79
ag79
ag79
ag79
ag79
ag79
ag79
ag79
ag79
ag79
ag79
ag79
ag79
ag79
ag79
ag79
ag79
ag79
ag79
ag79
ag79
ag79
ag79
ag79
ag79
ag79
ag79
ag79
ag79
ag79
ag79
ag79
ag79
ag79
ag79
ag79
ag79
ag79
ag79
ag79
ag79
ag79
ag79
ag79
ag79
ag79
ag79
ag79
ag79
ag79
ag79
ag79
ag79
ag79
ag79
ag79
ag79
ag79
ag79
ag79
ag79
ag79
ag79
ag79
ag79
ag79
ag79
ag79
ag79
ag79
ag79
ag79
ag79
ag79
ag79
ag79
ag79
ag79
ag79
ag79
ag79
ag79
ag79
ag79
ag79
ag79
ag79
ag79
ag79
ag79
ag79
ag79
ag79
ag79
aS'sit'
p80
ag80
ag80
ag80
ag80
ag80
ag80
ag80
ag80
ag80
ag80
ag80
ag80
ag80
ag80
ag80
ag80
ag80
ag80
ag80
ag80
ag80
ag80
ag80
ag80
ag80
ag80
ag80
ag80
ag80
ag80
ag80
ag80
ag80
ag80
ag80
ag80
ag80
ag80
ag80
ag80
ag80
ag80
ag80
ag80
ag80
ag80
ag80
ag80
ag80
ag80
ag80
ag80
ag80
ag80
ag80
ag80
ag80
ag80
ag80
ag80
ag80
ag80
ag80
ag80
ag80
ag80
ag80
ag80
ag80
ag80
ag80
ag80
ag80
ag80
ag80
ag80
ag80
ag80
ag80
ag80
ag80
ag80
ag80
ag80
ag80
ag80
ag80
ag80
ag80
ag80
ag80
ag80
ag80
ag80
ag80
ag80
ag80
ag80
ag80
ag80
ag80
ag80
ag80
ag80
ag80
ag80
ag80
ag80
ag80
ag80
ag80
ag80
ag80
ag80
ag80
ag80
ag80
ag80
ag80
ag80
ag80
ag80
ag80
ag80
ag80
ag80
ag80
ag80
ag80
ag80
ag80
ag80
ag80
ag80
ag80
ag80
ag80
ag80
ag80
ag80
ag80
ag80
ag80
ag80
ag80
ag80
ag80
ag80
ag80
ag80
ag80
ag80
ag80
ag80
ag80
ag80
ag80
ag80
ag80
ag80
ag80
ag80
ag80
ag80
ag80
ag80
ag80
ag80
ag80
ag80
ag80
ag80
ag80
ag80
ag80
ag80
ag80
ag80
ag80
ag80
ag80
ag80
ag80
ag80
ag80
ag80
ag80
ag80
ag80
ag80
ag80
ag80
ag80
ag80
ag80
ag80
ag80
ag80
ag80
ag80
ag80
ag80
ag80
ag80
ag80
ag80
ag80
ag80
ag80
ag80
ag80
ag80
ag80
ag80
ag80
ag80
ag80
ag80
ag80
ag80
ag80
ag80
ag80
ag80
ag80
ag80
ag80
ag80
ag80
ag80
ag80
ag80
ag80
ag80
ag80
ag80
ag80
ag80
ag80
ag80
ag80
ag80
ag80
ag80
ag80
ag80
ag80
ag80
ag80
ag80
ag80
ag80
aS'who'
p81
ag81
ag81
ag81
ag81
ag81
ag81
ag81
ag81
ag81
ag81
ag81
ag81
ag81
ag81
ag81
ag81
ag81
ag81
ag81
ag81
ag81
ag81
ag81
ag81
ag81
ag81
ag81
ag81
ag81
ag81
ag81
ag81
ag81
ag81
ag81
ag81
ag81
ag81
ag81
ag81
ag81
ag81
ag81
ag81
ag81
ag81
ag81
ag81
ag81
ag81
ag81
ag81
ag81
ag81
ag81
ag81
ag81
ag81
ag81
ag81
ag81
ag81
ag81
ag81
ag81
ag81
ag81
ag81
ag81
ag81
ag81
ag81
ag81
ag81
ag81
ag81
ag81
ag81
ag81
ag81
ag81
ag81
ag81
ag81
ag81
ag81
ag81
ag81
ag81
ag81
ag81
ag81
ag81
ag81
ag81
ag81
ag81
ag81
ag81
ag81
ag81
ag81
ag81
ag81
ag81
ag81
ag81
ag81
ag81
ag81
ag81
ag81
ag81
ag81
ag81
ag81
ag81
ag81
ag36
ag81
ag81
ag81
ag81
ag81
ag81
ag81
ag81
ag81
ag81
ag81
ag81
ag81
ag81
ag81
ag81
ag81
ag81
ag81
ag81
ag81
ag81
ag81
ag81
ag81
ag81
ag81
ag81
ag81
ag81
ag81
ag81
ag81
ag81
ag81
ag81
ag81
ag81
ag81
ag81
ag81
ag81
ag81
ag81
ag81
ag81
ag81
ag81
ag81
ag81
ag81
ag81
ag81
ag81
ag81
ag81
ag81
ag81
ag81
ag81
ag81
ag81
ag81
ag81
ag81
ag81
ag81
ag81
ag81
ag81
ag81
ag81
ag81
ag81
ag81
ag81
ag81
ag81
ag81
ag81
ag81
ag81
ag81
ag81
ag81
ag81
ag81
ag81
ag81
ag81
ag81
ag81
ag81
ag81
ag81
ag81
ag81
ag81
ag81
ag81
ag81
ag81
ag81
ag81
ag81
ag81
ag81
ag81
ag81
ag81
ag81
aS'hot'
p82
ag82
ag82
ag82
ag82
ag82
ag82
ag82
ag82
ag82
ag82
ag82
ag82
ag82
ag82
ag82
ag82
ag82
ag82
ag82
ag82
ag82
ag82
ag82
ag82
ag82
ag82
ag82
ag82
ag82
ag82
ag82
ag82
ag82
ag82
ag82
ag82
ag82
ag82
ag82
ag82
ag82
ag82
ag82
ag82
ag82
ag82
ag82
ag82
ag82
ag82
ag82
ag82
ag82
ag82
ag82
ag46
ag82
ag82
ag82
ag82
ag82
ag46
ag82
ag82
ag82
ag82
ag82
ag82
ag82
ag82
ag82
ag82
ag82
ag82
ag82
ag82
ag82
ag82
ag82
ag82
ag82
ag82
ag82
ag43
ag82
ag82
ag82
ag43
ag82
ag82
ag82
ag82
ag82
ag82
ag82
ag82
ag82
ag82
ag82
ag82
ag82
ag82
ag82
ag82
ag82
ag82
ag82
ag82
ag82
ag82
ag82
ag82
ag82
ag82
ag82
ag82
ag82
ag82
ag82
ag82
ag82
ag82
ag82
ag82
ag82
ag82
ag82
ag82
ag82
ag82
ag82
ag82
ag82
ag82
ag82
ag43
ag82
ag82
ag82
ag82
ag82
ag82
ag82
ag82
ag82
ag82
ag82
ag82
ag82
ag82
ag82
ag82
ag82
ag82
ag82
ag82
ag82
ag82
ag82
ag82
ag82
ag82
ag82
ag82
ag82
ag82
ag82
ag82
ag82
ag82
ag82
ag82
ag82
ag82
ag82
ag82
ag82
ag82
ag82
ag82
ag82
ag82
ag82
ag82
ag82
ag82
ag82
ag82
ag82
ag82
ag82
ag82
ag82
ag82
ag82
ag82
ag82
ag82
ag82
ag82
ag82
ag65
ag82
ag82
ag65
ag82
ag82
ag82
ag82
ag82
ag82
ag82
ag82
ag82
ag82
ag82
ag82
ag82
ag82
ag82
ag82
ag82
ag82
ag82
ag82
ag82
ag82
ag82
ag82
ag82
ag82
ag82
ag82
ag82
ag82
ag82
ag46
ag82
ag82
ag41
ag82
ag82
ag82
ag82
ag82
ag82
ag82
ag82
ag82
ag82
ag82
ag82
aS'belly'
p83
ag83
ag83
ag83
ag83
ag83
ag83
ag83
ag83
ag83
ag83
ag83
ag83
ag83
ag83
ag83
ag83
ag83
ag83
ag83
ag83
ag83
ag83
ag83
ag83
ag83
ag83
ag16
ag83
ag83
ag83
ag83
ag83
ag16
ag83
ag83
ag83
ag83
ag83
ag83
ag83
ag83
ag83
ag83
ag83
ag83
ag83
ag83
ag83
ag83
ag83
ag83
ag83
ag83
ag83
ag83
ag83
ag83
ag83
ag83
ag83
ag83
ag83
ag83
ag83
ag83
ag83
ag83
ag83
ag83
ag83
ag83
ag83
ag83
ag83
ag83
ag83
ag83
ag83
ag83
ag83
ag83
ag83
ag83
ag83
ag83
ag83
ag83
ag83
ag83
ag83
ag83
ag83
ag83
ag83
ag83
ag83
ag83
ag83
ag83
ag83
ag83
ag83
ag83
ag83
ag83
ag83
ag83
ag83
ag83
ag83
ag83
ag83
ag83
ag83
ag83
ag83
ag83
ag83
ag83
ag83
ag83
ag83
ag83
ag83
ag83
ag83
ag83
ag83
ag83
ag83
ag83
ag83
ag83
ag83
ag83
ag83
ag83
ag16
ag83
ag83
ag83
ag83
ag83
ag83
ag83
ag83
ag83
ag83
ag83
ag83
ag83
ag83
ag83
ag83
ag83
ag83
ag83
ag83
ag83
ag83
ag83
ag83
ag83
ag83
ag83
ag83
ag83
ag83
ag83
ag83
ag83
ag83
ag83
ag83
ag83
ag83
ag83
ag63
ag83
ag83
ag83
ag83
ag83
ag83
ag63
ag63
ag83
ag83
ag83
ag83
ag83
ag83
ag83
ag83
ag83
ag83
ag83
ag83
ag83
ag83
ag83
ag83
ag83
ag83
ag83
ag83
ag83
ag83
ag83
ag83
ag83
ag83
ag83
ag83
ag83
ag83
ag83
ag83
ag83
ag83
ag83
ag83
ag63
ag63
ag83
ag83
ag83
ag83
ag83
ag83
ag83
ag83
ag83
ag83
ag83
ag83
ag83
ag83
ag83
ag83
ag83
ag83
ag83
ag83
ag83
ag83
ag83
ag83
ag83
ag83
ag83
ag63
aS'you'
p84
ag84
ag84
ag84
ag84
ag84
ag84
ag84
ag84
ag84
ag84
ag84
ag84
ag84
ag84
ag84
ag84
ag84
ag84
ag84
ag84
ag84
ag84
ag84
ag84
ag84
ag84
ag84
ag84
ag84
ag84
ag84
ag84
ag84
ag84
ag84
ag84
ag84
ag84
ag84
ag84
ag84
ag84
ag84
ag84
ag84
ag84
ag84
ag84
ag84
ag84
ag84
ag84
ag84
ag84
ag84
ag84
ag84
ag84
ag84
ag84
ag84
ag84
ag84
ag84
ag84
ag84
ag84
ag84
ag84
ag84
ag84
ag84
ag84
ag84
ag84
ag84
ag84
ag84
ag84
ag84
ag84
ag84
ag84
ag84
ag84
ag84
ag84
ag84
ag84
ag84
ag84
ag84
ag84
ag84
ag84
ag84
ag84
ag84
ag84
ag84
ag84
ag84
ag84
ag84
ag84
ag84
ag84
ag84
ag84
ag84
ag84
ag84
ag84
ag84
ag84
ag84
ag84
ag84
ag84
ag84
ag84
ag84
ag84
ag84
ag84
ag84
ag84
ag84
ag84
ag84
ag84
ag84
ag84
ag84
ag84
ag84
ag84
ag84
ag84
ag84
ag84
ag84
ag84
ag84
ag84
ag84
ag84
ag84
ag84
ag84
ag84
ag84
ag84
ag84
ag84
ag84
ag84
ag84
ag84
ag84
ag84
ag84
ag84
ag84
ag84
ag84
ag84
ag84
ag84
ag84
ag84
ag84
ag84
ag84
ag84
ag84
ag84
ag84
ag84
ag84
ag84
ag84
ag84
ag84
ag84
ag84
ag84
ag84
ag84
ag84
ag84
ag84
ag84
ag84
ag84
ag84
ag84
ag84
ag84
ag84
ag84
ag84
ag84
ag84
ag84
ag84
ag84
ag84
ag84
aS'star'
p85
ag85
ag85
ag85
ag85
ag85
ag85
ag85
ag85
ag85
ag85
ag85
ag85
ag85
ag85
ag85
ag85
ag85
ag85
ag85
ag85
ag85
ag85
ag85
ag85
ag85
ag85
ag85
ag85
ag85
ag85
ag85
ag85
ag85
ag85
ag85
ag85
ag85
ag85
ag85
ag85
ag85
ag85
ag85
ag85
ag85
ag85
ag85
ag85
ag85
ag85
ag85
ag85
ag85
ag85
ag85
ag85
ag85
ag85
ag85
ag85
ag85
ag85
ag85
ag85
ag85
ag85
ag85
ag85
ag85
ag85
ag85
ag85
ag85
ag85
ag85
ag85
ag85
ag85
ag85
ag85
ag85
ag85
ag85
ag85
ag85
ag85
ag85
ag85
ag85
ag85
ag85
ag85
ag85
ag85
ag85
ag85
ag85
ag85
ag85
ag85
ag85
ag85
ag85
ag85
ag85
ag85
ag14
ag85
ag85
ag85
ag85
ag85
ag85
ag85
ag14
ag85
ag85
ag85
ag85
ag85
ag85
ag85
ag85
ag85
ag85
ag85
ag85
ag85
ag85
ag85
ag85
ag85
ag85
ag85
ag85
ag85
ag85
ag85
ag85
ag85
ag85
ag85
ag85
ag85
ag85
ag85
ag85
ag85
ag85
ag85
ag85
ag85
ag85
ag85
ag85
ag85
ag85
ag85
ag85
ag85
ag85
ag85
ag85
ag85
ag85
ag85
ag85
ag85
ag85
ag85
ag85
ag85
ag85
ag85
ag85
ag85
ag85
ag85
ag85
ag85
ag85
ag85
ag85
ag85
ag85
ag85
ag85
ag85
ag85
ag85
ag85
ag85
ag85
ag85
ag85
ag85
ag85
ag85
ag85
ag85
ag85
ag85
ag85
ag85
ag85
ag85
ag85
ag85
ag85
ag85
ag85
ag85
ag85
ag85
ag14
ag85
ag85
ag85
ag85
ag85
ag85
ag85
ag85
ag85
ag85
ag85
ag85
ag85
ag85
ag85
ag85
ag85
ag85
ag85
ag85
ag85
ag85
ag85
ag85
ag85
ag85
ag85
ag85
ag85
ag85
ag85
ag85
ag85
ag85
ag85
ag85
ag85
ag59
ag59
aS'mountain'
p86
ag86
ag59
ag59
ag86
ag59
ag86
ag59
ag86
ag86
ag86
ag59
ag59
ag59
ag59
ag59
ag86
ag86
ag59
ag86
ag86
ag59
ag59
ag86
ag59
ag86
ag59
ag86
ag86
ag86
ag59
ag59
ag59
ag59
ag59
ag86
ag86
ag86
ag86
ag59
ag59
ag86
ag59
ag86
ag59
ag86
ag86
ag86
ag59
ag59
ag59
ag59
ag59
ag86
ag86
ag86
ag86
ag86
ag86
ag86
ag86
ag86
ag86
ag86
ag86
ag86
ag86
ag86
ag86
ag86
ag86
ag86
ag86
ag86
ag86
ag86
ag86
ag86
ag86
ag86
ag86
ag86
ag86
ag86
ag86
ag86
ag86
ag86
ag59
ag86
ag59
ag86
ag59
ag86
ag86
ag86
ag59
ag59
ag59
ag59
ag59
ag86
ag86
ag86
ag59
ag86
ag59
ag86
ag86
ag86
ag59
ag59
ag59
ag59
ag59
ag86
ag86
ag86
ag86
ag86
ag86
ag86
ag86
ag86
ag86
ag86
ag86
ag86
ag86
ag86
ag86
ag59
ag86
ag86
ag86
ag59
ag59
ag59
ag59
ag59
ag86
ag86
ag86
ag86
ag86
ag86
ag86
ag86
ag86
ag86
ag86
ag86
ag86
ag86
ag86
ag86
ag59
ag59
ag59
ag59
ag59
ag86
ag86
ag86
ag86
ag86
ag86
ag86
ag86
ag86
ag86
ag86
ag86
ag86
ag86
ag86
ag86
ag86
ag86
ag86
ag86
ag86
ag86
ag86
ag86
ag86
ag86
ag59
ag59
ag59
ag59
ag86
ag86
ag59
ag59
ag59
ag86
ag86
ag59
ag59
ag86
ag86
ag59
ag86
ag86
ag86
ag86
ag86
aS'I'
p87
ag57
ag87
ag57
ag87
ag87
ag87
ag87
ag87
ag87
ag87
ag87
ag87
ag57
ag87
ag87
ag57
ag87
ag57
ag87
ag87
ag87
ag87
ag87
ag87
ag87
ag87
ag87
ag87
ag87
ag87
ag87
ag87
ag87
ag87
ag87
ag87
ag87
ag57
ag87
ag87
ag87
ag87
ag87
ag87
ag87
ag87
ag87
ag57
ag87
ag87
ag57
ag87
ag57
ag87
ag87
ag87
ag87
ag87
ag87
ag87
ag87
ag87
ag87
ag87
ag87
ag87
ag87
ag87
ag87
ag87
ag87
ag87
ag87
ag87
ag87
ag87
ag87
ag87
ag57
ag87
ag87
ag57
ag87
ag57
ag87
ag87
ag87
ag87
ag87
ag87
ag87
ag87
ag87
ag87
ag87
ag87
ag87
ag87
ag87
ag87
ag87
ag87
ag87
ag87
ag87
ag87
ag87
ag87
ag87
ag87
ag87
ag87
ag87
ag87
ag87
ag87
ag87
ag87
ag87
ag87
ag87
ag87
ag87
ag87
ag87
ag87
ag87
ag87
ag87
ag87
ag87
ag87
ag87
ag87
ag87
ag87
ag87
ag87
ag87
ag87
ag87
ag87
ag87
ag87
ag87
ag87
ag87
ag87
ag87
ag87
ag87
ag87
ag87
ag87
ag87
ag87
ag87
ag87
ag87
ag87
ag87
ag87
ag87
ag87
ag87
ag87
ag87
ag87
ag87
ag87
ag87
ag87
ag87
ag87
ag87
ag87
ag57
ag87
ag57
ag87
ag87
ag87
ag87
ag87
ag87
ag87
ag87
ag57
ag87
aS'drink'
p88
ag88
ag88
ag88
ag88
ag88
ag88
ag88
ag88
ag88
ag88
ag88
ag88
ag88
ag88
ag88
ag88
ag88
ag88
ag88
ag88
ag88
ag88
ag88
ag88
ag88
ag88
ag88
ag88
ag88
ag88
ag88
ag88
ag88
ag88
ag88
ag88
ag88
ag88
ag88
ag88
ag88
ag88
ag88
ag88
ag88
ag88
ag88
ag88
ag88
ag88
ag88
ag88
ag88
ag88
ag88
ag88
ag88
ag88
ag88
ag88
ag88
ag88
ag88
ag88
ag32
ag88
ag88
ag88
ag88
ag88
ag88
ag88
ag88
ag88
ag88
ag88
ag88
ag88
ag88
ag88
ag88
ag88
ag88
ag88
ag88
ag88
ag88
ag88
ag88
ag88
ag88
ag88
ag88
ag88
ag88
ag88
ag88
ag88
ag88
ag88
ag88
ag88
ag88
ag88
ag88
ag88
ag88
ag88
ag88
ag88
ag88
ag88
ag88
ag88
ag88
ag88
ag88
ag88
ag88
ag88
ag88
ag88
ag88
ag88
ag88
ag88
ag88
ag88
ag88
ag88
ag88
ag88
ag88
ag88
ag88
ag88
ag88
ag88
ag88
ag88
ag88
ag88
ag88
ag88
ag88
ag88
ag88
ag88
ag88
ag88
ag88
ag88
ag88
ag88
ag88
ag88
ag88
ag88
ag88
ag88
ag88
ag88
ag88
ag88
ag88
ag54
ag54
ag88
ag88
ag54
ag54
ag88
ag88
ag88
ag88
ag88
ag88
ag88
ag88
ag88
ag3
ag88
ag88
ag88
ag88
ag3
ag88
ag88
ag88
ag88
ag88
ag88
ag88
ag88
ag88
ag88
ag88
ag88
ag88
ag88
ag88
ag88
ag88
ag88
ag88
ag88
ag88
ag88
ag88
ag88
ag88
ag88
ag88
ag88
ag88
ag88
ag54
ag88
ag88
ag54
ag54
ag88
ag88
ag88
ag88
ag88
ag54
ag54
ag88
ag88
ag88
ag88
ag88
ag88
ag88
ag88
ag88
ag88
ag88
ag88
ag88
ag3
ag54
ag88
ag88
ag88
ag88
ag88
ag88
ag88
ag88
ag88
aS'breasts'
p89
ag89
ag89
ag89
ag89
ag89
ag89
ag89
ag89
ag89
ag89
ag89
ag89
ag89
ag89
ag89
ag89
ag89
ag89
ag89
ag89
ag89
ag89
ag89
ag89
ag89
ag89
ag89
ag89
ag89
ag89
ag89
ag89
ag89
ag89
ag89
ag89
ag89
ag89
ag89
ag89
ag89
ag89
ag89
ag89
ag89
ag89
ag89
ag89
ag89
ag89
ag89
ag89
ag89
ag89
ag89
ag89
ag89
ag89
ag89
ag89
ag89
ag89
ag89
ag89
ag89
ag89
ag89
ag89
ag89
ag89
ag89
ag89
ag89
ag89
ag89
ag89
ag89
ag89
ag89
ag89
ag89
ag89
ag89
ag89
ag89
ag31
ag89
ag89
ag89
ag89
ag89
ag89
ag89
ag31
ag89
ag89
ag89
ag89
ag89
ag89
ag89
ag89
ag89
ag89
ag89
ag89
ag89
ag89
ag89
ag89
ag89
ag89
ag89
ag89
ag89
ag89
ag89
ag89
ag89
ag89
ag89
ag89
ag89
ag89
ag89
ag89
ag89
ag89
ag89
ag89
ag89
ag89
ag89
ag89
ag89
ag89
ag89
ag89
ag89
ag89
ag89
ag89
ag89
ag89
ag89
ag89
ag89
ag89
ag89
ag89
ag89
ag89
ag89
ag89
ag89
ag89
ag89
ag89
ag89
ag89
ag89
ag89
ag89
ag89
ag89
ag89
ag89
ag89
ag31
ag89
ag89
ag89
ag89
ag89
ag89
ag89
ag89
ag89
ag89
ag7
ag89
ag89
ag89
ag89
ag89
ag89
ag89
ag89
ag89
ag89
ag89
ag89
ag89
ag89
ag89
ag89
ag89
ag64
ag89
ag89
ag89
ag89
ag89
ag89
ag89
ag64
ag89
ag89
ag89
ag89
ag89
ag89
ag89
ag89
ag64
ag89
ag89
ag89
ag89
ag89
ag89
ag89
ag89
ag89
ag89
ag89
ag89
ag89
ag89
ag89
ag89
ag89
ag89
ag89
ag89
ag89
ag89
ag89
ag89
ag89
ag89
ag89
ag89
ag89
ag89
ag89
ag89
ag89
ag89
ag89
ag89
ag89
aS'rain'
p90
ag90
ag90
ag90
ag90
ag90
ag90
ag90
ag90
ag90
ag90
ag90
ag90
ag90
ag90
ag90
ag90
ag90
ag90
ag90
ag90
ag90
ag90
ag90
ag90
ag90
ag90
ag90
ag90
ag90
ag90
ag90
ag90
ag90
ag90
ag90
ag90
ag90
ag90
ag90
ag90
ag90
ag90
ag90
ag90
ag90
ag90
ag90
ag90
ag90
ag90
ag90
ag90
ag90
ag90
ag90
ag90
ag90
ag90
ag90
ag90
ag90
ag90
ag90
ag90
ag90
ag90
ag90
ag90
ag90
ag90
ag90
ag90
ag90
ag90
ag90
ag90
ag90
ag90
ag90
ag90
ag90
ag90
ag90
ag90
ag90
ag90
ag90
ag90
ag90
ag90
ag90
ag90
ag90
ag90
ag90
ag90
ag90
ag90
ag90
ag90
ag47
ag90
ag90
ag90
ag90
ag90
ag47
ag90
ag90
ag90
ag90
ag90
ag90
ag90
ag90
ag90
ag90
ag90
ag90
ag90
ag90
ag90
ag90
ag90
ag90
ag90
ag90
ag90
ag90
ag90
ag90
ag90
ag90
ag90
ag90
ag90
ag90
ag47
ag90
ag90
ag90
ag90
ag90
ag90
ag90
ag90
ag90
ag90
ag90
ag90
ag90
ag90
ag90
ag90
ag90
ag90
ag90
ag90
ag90
ag90
ag90
ag90
ag90
ag90
ag90
ag90
ag90
ag90
ag90
ag90
ag90
ag90
ag90
ag90
ag90
ag90
ag90
ag90
ag90
ag90
ag90
ag90
ag90
ag90
ag90
ag90
ag90
ag90
ag90
ag90
ag90
ag90
ag90
ag90
ag90
ag90
ag90
ag90
ag90
ag90
ag90
ag90
ag90
ag90
ag90
ag90
ag90
ag90
ag90
ag90
ag90
ag90
ag90
ag90
ag90
ag90
ag90
ag90
ag90
ag90
ag90
ag90
ag90
ag90
ag90
ag90
ag90
ag90
ag90
ag90
ag90
ag90
ag90
ag90
ag90
ag90
ag90
ag90
ag90
ag90
ag90
ag90
ag90
ag90
ag90
ag90
ag90
ag90
ag90
ag90
ag90
ag90
aS'hand'
p91
ag91
ag91
ag91
ag91
ag91
ag91
ag91
ag91
ag91
ag91
ag91
ag91
ag91
ag91
ag91
ag91
ag91
ag91
ag91
ag91
ag91
ag91
ag91
ag91
ag91
ag91
ag91
ag91
ag91
ag91
ag91
ag91
ag91
ag91
ag91
ag91
ag91
ag91
ag91
ag91
ag91
ag91
ag65
ag91
ag91
ag91
ag91
ag91
ag91
ag91
ag91
ag91
ag91
ag91
ag91
ag91
ag91
ag91
ag91
ag91
ag91
ag91
ag91
ag91
ag91
ag91
ag91
ag91
ag91
ag91
ag91
ag91
ag91
ag91
ag91
ag91
ag91
ag91
ag91
ag91
ag91
ag91
ag91
ag91
ag91
ag91
ag91
ag91
ag91
ag91
ag91
ag91
ag91
ag91
ag91
ag91
ag91
ag91
ag91
ag91
ag91
ag91
ag91
ag91
ag91
ag91
ag91
ag91
ag91
ag91
ag91
ag91
ag91
ag91
ag91
ag91
ag91
ag91
ag91
ag91
ag91
ag91
ag91
ag91
ag91
ag91
ag91
ag91
ag91
ag91
ag91
ag91
ag91
ag91
ag91
ag91
ag91
ag91
ag91
ag91
ag91
ag91
ag91
ag91
ag91
ag91
ag91
ag91
ag91
ag91
ag91
ag91
ag91
ag91
ag91
ag91
ag91
ag91
ag91
ag91
ag91
ag91
ag91
ag91
ag91
ag91
ag91
ag91
ag91
ag91
ag91
ag91
ag91
ag91
ag91
ag91
ag91
ag91
ag91
ag91
ag91
ag91
ag91
ag91
ag91
ag91
ag91
ag91
ag91
ag91
ag91
ag91
ag91
ag91
ag91
ag91
ag91
ag91
ag91
ag91
ag91
ag91
ag91
ag91
ag91
ag91
ag91
ag91
ag91
ag91
ag91
ag91
ag91
ag91
ag91
ag91
ag91
ag91
ag91
ag91
ag91
ag91
ag91
ag91
ag91
ag91
ag91
ag91
ag91
ag91
ag91
ag91
ag91
ag91
ag91
ag91
ag91
ag91
ag91
ag91
ag91
ag91
ag91
ag91
ag91
ag91
ag91
ag91
ag91
ag91
ag91
ag91
ag91
ag91
ag91
ag91
ag91
ag91
ag91
ag91
ag91
ag91
ag91
ag91
ag91
ag91
ag91
ag91
ag91
ag91
ag91
ag91
ag91
ag91
ag91
ag60
ag3
ag60
ag3
ag60
ag60
aS'mouth'
p92
ag60
ag60
ag3
ag3
ag60
ag60
ag92
ag60
ag60
ag92
ag92
ag60
ag92
ag60
ag60
ag60
ag60
ag60
ag60
ag60
ag60
ag92
ag60
ag60
ag60
ag60
ag60
ag60
ag92
ag60
ag60
ag92
ag92
ag60
ag92
ag60
ag60
ag60
ag60
ag3
ag60
ag60
ag92
ag60
ag60
ag3
ag3
ag60
ag60
ag92
ag60
ag60
ag92
ag92
ag60
ag92
ag60
ag60
ag60
ag60
ag60
ag60
ag92
ag60
ag60
ag60
ag60
ag60
ag60
ag92
ag60
ag60
ag92
ag92
ag60
ag92
ag60
ag60
ag60
ag60
ag60
ag92
ag60
ag60
ag3
ag3
ag60
ag60
ag92
ag60
ag60
ag92
ag92
ag60
ag92
ag60
ag60
ag60
ag60
ag92
ag60
ag60
ag60
ag60
ag60
ag60
ag92
ag60
ag60
ag92
ag92
ag60
ag92
ag60
ag60
ag60
ag92
ag60
ag60
ag60
ag60
ag60
ag60
ag92
ag60
ag60
ag92
ag92
ag60
ag92
ag60
ag60
ag60
ag92
ag92
ag92
ag92
ag92
ag92
ag92
ag92
ag92
ag92
ag92
ag92
ag92
ag92
ag92
ag92
ag60
ag60
ag60
ag60
ag60
ag92
ag60
ag60
ag92
ag92
ag60
ag92
ag60
ag60
ag60
ag60
ag60
ag60
ag60
ag92
ag60
ag60
ag92
ag92
ag60
ag92
ag60
ag60
ag60
ag3
ag60
ag60
ag92
ag60
ag60
ag92
ag92
ag60
ag92
ag60
ag60
ag60
ag60
ag60
ag92
ag60
ag60
ag92
ag92
ag60
ag92
ag60
ag60
ag60
ag60
ag92
ag60
ag60
ag92
ag92
ag60
ag92
ag60
ag60
ag60
ag92
ag60
ag60
ag92
ag92
ag60
ag92
ag60
ag60
ag60
ag92
ag92
ag92
ag92
ag92
ag92
ag92
ag92
ag92
ag60
ag92
ag92
ag60
ag92
ag60
ag60
ag60
ag92
ag92
ag60
ag92
ag60
ag60
ag60
ag92
ag92
ag92
ag92
ag92
ag92
ag92
ag92
ag92
ag92
ag92
ag92
ag60
ag60
ag60
ag92
ag92
ag92
ag60
ag60
ag60
aS'blood'
p93
ag93
ag93
ag93
ag93
ag93
ag93
ag93
ag93
ag93
ag93
ag93
ag93
ag93
ag93
ag93
ag93
ag93
ag93
ag93
ag93
ag93
ag93
ag93
ag93
ag93
ag93
ag93
ag93
ag93
ag93
ag93
ag93
ag93
ag93
ag93
ag93
ag93
ag93
ag93
ag93
ag93
ag93
ag93
ag93
ag93
ag93
ag93
ag93
ag93
ag93
ag93
ag93
ag93
ag93
ag93
ag93
ag93
ag93
ag93
ag93
ag93
ag14
ag93
ag93
ag93
ag93
ag93
ag93
ag93
ag93
ag93
ag93
ag93
ag93
ag93
ag93
ag93
ag93
ag93
ag93
ag93
ag93
ag93
ag93
ag93
ag93
ag93
ag93
ag93
ag93
ag93
ag93
ag93
ag93
ag93
ag93
ag93
ag93
ag93
ag93
ag93
ag93
ag93
ag93
ag93
ag93
ag93
ag93
ag93
ag93
ag93
ag93
ag93
ag93
ag93
ag93
ag93
ag93
ag93
ag93
ag93
ag93
ag93
ag93
ag93
ag93
ag93
ag93
ag93
ag93
ag93
ag93
ag93
ag93
ag93
ag93
ag93
ag93
ag93
ag93
ag93
ag93
ag93
ag93
ag93
ag93
ag93
ag93
ag93
ag93
ag93
ag93
ag93
ag93
ag93
ag93
ag93
ag93
ag93
ag93
ag93
ag93
ag93
ag93
ag93
ag93
ag93
ag93
ag93
ag93
ag93
ag93
ag93
ag93
ag93
ag93
ag93
ag93
ag93
ag93
ag93
ag93
ag93
ag93
ag93
ag93
ag93
ag93
ag93
ag93
ag93
ag93
ag93
ag93
ag93
ag93
ag93
ag93
ag93
ag93
ag93
ag93
ag93
ag93
ag93
ag93
ag93
ag93
ag93
ag93
ag93
ag93
ag93
ag93
ag93
ag23
ag93
ag93
ag93
ag93
ag93
ag93
ag93
ag93
ag93
ag93
ag93
ag46
ag93
ag93
ag93
ag93
ag93
ag93
ag93
ag93
ag93
ag93
ag93
ag93
ag93
ag93
ag93
ag93
ag93
ag93
ag93
ag93
ag93
ag93
ag93
ag93
ag93
ag93
ag93
ag93
ag93
ag93
ag93
ag93
ag93
ag93
ag93
ag93
ag93
ag93
ag93
ag93
ag93
ag93
ag93
ag93
ag93
ag93
ag93
aS'knee'
p94
ag94
ag94
ag94
ag94
ag94
ag94
ag94
ag94
ag94
ag94
ag94
ag94
ag94
ag94
ag94
ag94
ag94
ag94
ag94
ag94
ag94
ag94
ag94
ag94
ag94
ag39
ag94
ag94
ag39
ag94
ag94
ag94
ag94
ag94
ag94
ag94
ag94
ag94
ag94
ag94
ag94
ag94
ag39
ag94
ag94
ag94
ag94
ag94
ag94
ag94
ag94
ag94
ag94
ag94
ag94
ag94
ag94
ag94
ag94
ag94
ag94
ag94
ag94
ag94
ag94
ag94
ag94
ag94
ag94
ag94
ag94
ag94
ag94
ag94
ag94
ag94
ag94
ag94
ag94
ag94
ag94
ag94
ag94
ag94
ag94
ag94
ag94
ag94
ag94
ag94
ag94
ag94
ag94
ag94
ag94
ag94
ag94
ag94
ag94
ag94
ag94
ag94
ag94
ag94
ag94
ag94
ag39
ag94
ag94
ag94
ag94
ag94
ag94
ag94
ag94
ag94
ag94
ag94
ag94
ag94
ag39
ag94
ag94
ag94
ag94
ag94
ag94
ag94
ag94
ag94
ag94
ag94
ag94
ag94
ag94
ag94
ag94
ag94
ag94
ag94
ag94
ag94
ag94
ag94
ag94
ag94
ag94
ag94
ag94
ag94
ag94
ag94
ag94
ag94
ag94
ag94
ag94
ag94
ag94
ag94
ag94
ag94
ag94
ag94
ag94
ag94
ag94
ag94
ag39
ag94
ag94
ag94
ag94
ag94
ag94
ag94
ag94
ag94
ag94
ag94
ag94
ag94
ag94
ag94
ag94
ag94
ag94
ag80
ag80
ag94
ag94
ag80
ag94
ag94
ag94
ag94
ag94
ag94
ag94
ag94
ag94
ag94
ag94
ag94
ag94
ag94
ag94
ag94
ag94
ag94
ag94
ag94
ag94
ag94
ag94
ag94
ag94
ag94
ag94
ag94
ag94
ag94
ag94
ag94
ag94
ag94
ag94
ag94
ag94
ag94
ag80
ag94
ag94
ag80
ag94
ag94
ag94
ag94
ag94
ag94
ag94
ag80
ag94
ag94
ag94
ag94
ag94
ag94
ag94
ag94
ag94
ag94
ag94
ag94
ag94
ag94
ag94
ag94
ag94
ag94
ag94
ag94
ag94
ag94
ag94
ag94
ag94
ag94
ag94
ag94
ag94
ag94
ag94
ag94
ag94
aS'man'
p95
ag95
ag95
ag95
ag95
ag95
ag95
ag95
ag95
ag95
ag95
ag95
ag95
ag95
ag95
ag95
ag95
ag95
ag95
ag95
ag95
ag95
ag95
ag95
ag95
ag95
ag95
ag95
ag95
ag95
ag95
ag95
ag95
ag95
ag95
ag95
ag95
ag95
ag95
ag95
ag95
ag95
ag95
ag95
ag95
ag95
ag95
ag95
ag95
ag95
ag95
ag95
ag95
ag95
ag95
ag95
ag95
ag95
ag95
ag95
ag95
ag95
ag95
ag95
ag95
ag95
ag95
ag95
ag95
ag95
ag95
ag95
ag95
ag95
ag95
ag95
ag95
ag95
ag95
ag95
ag95
ag95
ag95
ag95
ag95
ag95
ag95
ag95
ag95
ag95
ag95
ag95
ag95
ag95
ag95
ag95
ag95
ag95
ag95
ag95
ag95
ag95
ag95
ag95
ag95
ag95
ag95
ag95
ag95
ag95
ag95
ag55
ag95
ag95
ag95
ag95
ag95
ag95
ag95
ag95
ag95
ag95
ag95
ag95
ag95
ag95
ag95
ag95
ag95
ag95
ag95
ag95
ag95
ag95
ag95
ag95
ag95
ag95
ag95
ag95
ag95
ag95
ag95
ag95
ag95
ag95
ag95
ag95
ag95
ag95
ag95
ag95
ag95
ag95
ag95
ag95
ag95
ag95
ag95
ag95
ag95
ag95
ag95
ag95
ag95
ag95
ag95
ag95
ag95
ag95
ag95
ag95
ag95
ag95
ag95
ag95
ag95
ag95
ag95
ag95
ag95
ag95
ag95
ag95
ag95
ag95
ag95
ag95
ag95
ag95
ag95
ag95
ag95
ag95
ag95
ag95
ag95
ag95
ag95
ag95
ag95
ag95
ag95
ag95
ag95
ag95
ag95
ag95
ag95
ag95
ag95
ag95
ag95
ag95
ag95
ag95
ag95
ag95
ag95
ag95
ag95
ag95
ag95
ag95
ag95
ag95
ag95
ag95
ag95
ag95
ag95
ag95
ag95
ag95
ag95
ag95
ag95
ag95
ag95
ag95
ag95
ag95
ag95
ag95
ag95
ag95
ag95
ag95
ag95
ag95
ag95
ag95
ag95
ag95
ag95
ag95
ag95
ag95
ag95
ag95
ag95
ag95
ag95
ag95
ag95
ag95
ag95
ag95
ag95
ag95
ag95
ag95
ag95
ag95
ag95
ag95
aS'neck'
p96
ag96
ag96
ag96
ag96
ag96
ag96
ag96
ag96
ag96
ag96
ag96
ag96
ag96
ag96
ag96
ag96
ag96
ag96
ag96
ag96
ag96
ag96
ag96
ag96
ag96
ag96
ag96
ag96
ag96
ag96
ag96
ag96
ag96
ag96
ag96
ag96
ag96
ag96
ag96
ag96
ag96
ag96
ag96
ag96
ag96
ag96
ag96
ag96
ag96
ag96
ag96
ag96
ag96
ag96
ag96
ag96
ag96
ag96
ag96
ag96
ag96
ag96
ag96
ag96
ag96
ag96
ag96
ag96
ag96
ag96
ag96
ag96
ag96
ag96
ag96
ag96
ag96
ag96
ag96
ag96
ag96
ag96
ag96
ag96
ag96
ag96
ag96
ag96
ag96
ag96
ag96
ag96
ag96
ag96
ag96
ag96
ag96
ag96
ag96
ag96
ag96
ag96
ag96
ag96
ag96
ag96
ag96
ag96
ag96
ag96
ag96
ag96
ag96
ag96
ag96
ag96
ag96
ag96
ag96
ag96
ag96
ag96
ag96
ag96
ag96
ag96
ag96
ag96
ag96
ag96
ag96
ag96
ag96
ag96
ag96
ag96
ag96
ag96
ag96
ag96
ag96
ag96
ag96
ag96
ag96
ag96
ag96
ag96
ag96
ag96
ag96
ag96
ag96
ag96
ag96
ag96
ag96
ag96
ag96
ag96
ag96
ag96
ag96
ag96
ag96
ag96
ag96
ag96
ag96
ag96
ag96
ag96
ag96
ag96
ag96
ag96
ag96
ag96
ag96
ag96
ag96
ag96
ag96
ag96
ag96
ag96
ag96
ag96
ag96
ag96
ag96
ag96
ag96
ag96
ag96
ag96
ag96
ag96
ag96
ag96
ag96
ag96
ag96
ag96
ag96
ag96
ag96
ag96
ag96
ag96
ag96
ag96
ag96
ag96
ag96
ag96
ag96
ag96
ag96
ag96
ag96
ag96
ag96
ag96
ag96
ag96
ag96
ag96
ag96
ag96
ag96
ag96
ag96
ag96
ag96
ag96
ag96
ag96
ag96
ag96
ag96
ag96
ag96
ag96
ag96
ag96
ag96
ag96
ag96
ag96
ag96
ag96
aS'dog'
p97
ag97
ag97
ag97
ag97
ag97
ag97
ag97
ag97
ag97
ag97
ag97
ag97
ag97
ag97
ag97
ag97
ag97
ag97
ag97
ag97
ag97
ag97
ag97
ag97
ag97
ag97
ag97
ag97
ag97
ag97
ag97
ag97
ag97
ag97
ag97
ag97
ag97
ag97
ag97
ag97
ag97
ag97
ag97
ag97
ag97
ag97
ag97
ag97
ag97
ag97
ag97
ag97
ag97
ag97
ag97
ag97
ag97
ag97
ag97
ag97
ag97
ag97
ag97
ag97
ag97
ag97
ag97
ag97
ag97
ag97
ag97
ag97
ag97
ag97
ag97
ag97
ag97
ag97
ag97
ag97
ag97
ag97
ag97
ag97
ag97
ag97
ag97
ag97
ag97
ag97
ag97
ag97
ag97
ag97
ag97
ag97
ag97
ag97
ag97
ag97
ag97
ag97
ag97
ag97
ag97
ag97
ag97
ag97
ag97
ag97
ag97
ag97
ag97
ag97
ag97
ag97
ag97
ag97
ag97
ag97
ag97
ag97
ag97
ag97
ag97
ag97
ag97
ag97
ag97
ag97
ag97
ag97
ag97
ag97
ag97
ag97
ag97
ag97
ag97
ag97
ag97
ag97
ag97
ag97
ag97
ag97
ag97
ag97
ag97
ag97
ag97
ag97
ag97
ag97
ag97
ag97
ag97
ag97
ag97
ag97
ag97
ag97
ag97
ag97
ag97
ag97
ag97
ag97
ag97
ag97
ag97
ag97
ag97
ag97
ag97
ag97
ag97
ag97
ag97
ag97
ag97
ag97
ag97
ag97
ag97
ag97
ag97
ag97
ag97
ag97
ag97
ag97
ag97
ag97
ag97
ag97
ag97
ag97
ag97
ag97
ag97
ag97
ag97
ag97
ag97
ag97
ag97
ag97
ag97
ag97
ag97
ag97
ag97
ag97
ag97
ag97
ag97
ag97
ag97
ag97
ag97
ag97
ag97
ag97
ag97
ag97
ag97
ag97
ag97
ag97
ag97
ag97
ag97
ag97
ag97
ag97
ag97
ag97
ag97
ag97
ag97
ag97
ag97
ag97
ag97
ag97
ag97
ag97
ag97
ag97
ag97
ag97
ag97
ag97
ag97
ag97
ag97
ag97
ag97
ag97
ag97
ag97
ag97
ag97
ag97
ag97
ag97
ag97
ag97
ag97
ag97
ag97
ag97
ag97
ag97
aS'tooth'
p98
ag98
ag98
ag98
ag98
ag98
ag98
ag98
ag98
ag98
ag98
ag98
ag98
ag98
ag98
ag33
ag98
ag98
ag98
ag98
ag98
ag98
ag98
ag98
ag98
ag98
ag98
ag98
ag98
ag98
ag98
ag98
ag98
ag98
ag98
ag98
ag98
ag98
ag98
ag98
ag98
ag98
ag98
ag98
ag98
ag98
ag98
ag98
ag98
ag98
ag98
ag98
ag98
ag98
ag98
ag98
ag98
ag98
ag98
ag98
ag98
ag98
ag98
ag98
ag98
ag98
ag98
ag92
ag98
ag92
ag98
ag98
ag98
ag98
ag98
ag98
ag98
ag98
ag98
ag98
ag98
ag98
ag98
ag98
ag98
ag98
ag98
ag98
ag98
ag98
ag98
ag98
ag98
ag98
ag98
ag98
ag98
ag98
ag98
ag98
ag98
ag98
ag98
ag98
ag98
ag98
ag98
ag98
ag98
ag98
ag98
ag98
ag98
ag98
ag98
ag98
ag98
ag98
ag98
ag98
ag98
ag98
ag98
ag98
ag98
ag98
ag98
ag98
ag98
ag98
ag98
ag98
ag98
ag98
ag98
ag98
ag98
ag98
ag98
ag98
ag98
ag98
ag98
ag98
ag98
ag98
ag98
ag98
ag98
ag98
ag98
ag98
ag98
ag98
ag98
ag98
ag98
ag98
ag98
ag98
ag98
ag98
ag98
ag98
ag98
ag98
ag98
ag98
ag98
ag98
ag98
ag98
ag98
ag98
ag98
ag98
ag98
ag92
ag98
ag98
ag98
ag98
ag98
ag98
ag98
ag98
ag98
ag98
ag98
ag98
ag98
ag98
ag98
ag98
ag98
ag98
ag98
ag98
ag98
ag98
ag98
ag98
ag98
ag98
ag98
ag98
ag98
ag98
ag98
ag98
ag98
ag98
ag98
ag98
ag98
ag98
ag98
ag98
ag98
ag98
ag98
ag98
ag98
ag98
ag98
ag98
ag98
ag98
ag98
ag98
ag98
aS'person'
p99
ag99
ag99
ag99
ag99
ag99
ag99
ag99
ag99
ag99
ag99
ag99
ag99
ag99
ag99
ag99
ag99
ag99
ag99
ag99
ag99
ag99
ag99
ag99
ag95
ag99
ag99
ag99
ag95
ag99
ag99
ag99
ag99
ag95
ag99
ag95
ag99
ag95
ag95
ag99
ag95
ag95
ag99
ag99
ag99
ag99
ag99
ag99
ag99
ag99
ag99
ag99
ag99
ag99
ag99
ag99
ag99
ag99
ag99
ag99
ag99
ag99
ag99
ag99
ag99
ag99
ag99
ag99
ag99
ag95
ag99
ag99
ag99
ag99
ag95
ag99
ag95
ag99
ag95
ag95
ag99
ag95
ag95
ag99
ag99
ag99
ag99
ag99
ag99
ag99
ag99
ag99
ag99
ag99
ag99
ag99
ag99
ag99
ag99
ag99
ag99
ag99
ag99
ag99
ag99
ag99
ag99
ag99
ag99
ag99
ag99
ag99
ag99
ag99
ag99
ag99
ag99
ag99
ag99
ag99
ag99
ag99
ag99
ag99
ag99
ag99
ag99
ag99
ag99
ag99
ag99
ag99
ag99
ag99
ag99
ag99
ag99
ag99
ag99
ag99
ag99
ag99
ag99
ag99
ag95
ag99
ag95
ag99
ag95
ag95
ag99
ag95
ag95
ag99
ag99
ag99
ag99
ag99
ag99
ag99
ag99
ag99
ag99
ag99
ag99
ag99
ag99
ag99
ag99
ag99
ag99
ag99
ag99
ag99
ag99
ag99
ag99
ag99
ag99
ag99
ag99
ag99
ag99
ag99
ag99
ag99
ag99
ag99
ag99
ag99
ag99
ag99
ag99
ag99
ag99
ag99
ag99
ag99
ag99
ag99
ag99
ag99
ag99
ag99
ag99
ag99
ag99
ag99
ag99
ag99
ag99
ag95
ag99
ag95
ag95
ag99
ag95
ag95
ag99
ag99
ag99
ag99
ag99
ag99
ag99
ag99
ag99
ag99
ag99
ag99
ag99
ag99
ag95
ag95
ag99
ag95
ag95
ag99
ag99
ag99
ag99
ag99
ag99
ag99
ag99
ag75
ag99
ag99
ag95
ag99
ag95
ag95
ag99
ag99
ag99
ag99
ag95
ag95
ag99
ag99
ag99
ag99
ag99
ag99
ag99
ag99
ag95
ag99
ag99
ag99
ag99
ag99
ag99
ag99
ag99
ag99
aS'green'
p100
ag100
ag100
ag100
ag100
ag100
ag100
ag100
ag100
ag100
ag100
ag100
ag100
ag100
ag100
ag100
ag100
ag100
ag100
ag100
ag100
ag100
ag100
ag100
ag100
ag100
ag100
ag100
ag100
ag100
ag100
ag100
ag100
ag100
ag100
ag100
ag100
ag100
ag100
ag100
ag100
ag100
ag100
ag100
ag100
ag100
ag100
ag100
ag100
ag100
ag100
ag100
ag100
ag100
ag100
ag100
ag100
ag100
ag100
ag100
ag100
ag100
ag100
ag100
ag100
ag100
ag100
ag100
ag100
ag100
ag100
ag100
ag100
ag36
ag100
ag100
ag100
ag100
ag100
ag100
ag100
ag100
ag100
ag100
ag100
ag100
ag100
ag100
ag100
ag100
ag100
ag100
ag100
ag100
ag100
ag100
ag100
ag100
ag100
ag100
ag100
ag100
ag100
ag100
ag100
ag100
ag100
ag100
ag100
ag100
ag100
ag100
ag100
ag100
ag100
ag100
ag100
ag100
ag100
ag100
ag100
ag100
ag100
ag100
ag100
ag100
ag100
ag100
ag100
ag100
ag100
ag100
ag100
ag100
ag100
ag100
ag100
ag100
ag100
ag100
ag100
ag100
ag100
ag100
ag100
ag100
ag100
ag100
ag100
ag100
ag100
ag100
ag100
ag100
ag100
ag100
ag100
ag100
ag100
ag100
ag100
ag100
ag100
ag100
ag100
ag100
ag100
ag100
ag100
ag100
ag100
ag100
ag100
ag100
ag100
ag100
ag100
ag100
ag100
ag100
ag100
ag100
ag100
ag100
ag100
ag100
ag100
ag100
ag100
ag100
ag100
ag100
ag100
ag100
ag100
ag100
ag100
ag100
ag100
ag100
ag100
ag100
ag100
ag100
ag100
ag100
ag100
ag100
ag100
ag100
ag100
ag100
ag100
ag100
ag100
ag100
ag100
ag100
ag100
ag100
ag100
ag100
ag100
ag100
ag100
ag100
ag100
ag100
ag100
ag100
ag100
ag100
ag100
ag100
ag100
ag100
ag100
ag100
ag100
ag100
ag100
ag100
ag100
ag100
ag100
ag100
ag100
ag100
ag100
ag100
ag100
ag100
ag100
ag100
ag100
ag100
ag100
ag100
ag100
ag100
ag100
ag100
ag100
ag100
ag100
ag100
ag100
ag100
ag100
ag100
ag100
ag100
ag100
ag100
ag100
ag100
aS'egg'
p101
ag101
ag101
ag101
ag101
ag101
ag101
ag101
ag101
ag101
ag101
ag101
ag101
ag101
ag101
ag101
ag101
ag101
ag101
ag101
ag101
ag101
ag101
ag101
ag101
ag101
ag101
ag101
ag101
ag101
ag101
ag101
ag101
ag101
ag101
ag101
ag101
ag101
ag101
ag101
ag101
ag101
ag101
ag101
ag101
ag101
ag101
ag101
ag101
ag101
ag101
ag101
ag101
ag101
ag101
ag101
ag101
ag101
ag101
ag101
ag101
ag101
ag101
ag101
ag101
ag101
ag101
ag101
ag101
ag101
ag101
ag101
ag101
ag101
ag101
ag101
ag101
ag101
ag101
ag101
ag101
ag101
ag101
ag101
ag101
ag101
ag101
ag101
ag101
ag101
ag101
ag101
ag101
ag101
ag101
ag101
ag101
ag101
ag101
ag101
ag101
ag101
ag101
ag101
ag101
ag101
ag101
ag101
ag101
ag101
ag101
ag101
ag101
ag101
ag101
ag101
ag101
ag101
ag101
ag101
ag101
ag101
ag101
ag101
ag101
ag101
ag101
ag101
ag101
ag101
ag101
ag101
ag101
ag101
ag101
ag101
ag101
ag101
ag101
ag101
ag101
ag101
ag101
ag101
ag101
ag101
ag101
ag101
ag101
ag101
ag101
ag101
ag101
ag101
ag101
ag101
ag101
ag101
ag101
ag101
ag101
ag101
ag101
ag101
ag101
ag101
ag101
ag101
ag101
ag101
ag101
ag101
ag101
ag101
ag101
ag101
ag101
ag101
ag101
ag101
ag101
ag101
ag101
ag101
ag101
ag101
ag101
ag101
ag101
ag101
ag101
ag101
ag101
ag101
ag101
ag101
ag101
ag101
ag101
ag101
ag101
ag101
ag101
ag101
ag101
ag101
ag101
ag101
ag101
ag101
ag101
ag101
ag101
ag101
ag101
ag101
ag101
ag101
ag101
ag101
ag101
ag101
ag101
ag101
ag101
ag101
ag101
ag101
ag101
ag101
ag101
ag101
ag101
ag101
ag101
ag101
ag101
ag101
ag101
ag101
ag101
ag101
ag101
ag101
ag101
ag101
ag101
ag101
ag101
ag101
ag101
ag101
ag101
aa(lp102
g2
ag2
ag2
ag2
ag2
ag2
ag2
ag2
ag2
ag2
ag2
ag2
ag2
ag2
ag2
ag3
ag3
ag3
ag3
ag3
ag3
ag3
ag3
ag3
ag3
ag3
ag3
ag3
ag3
ag3
ag4
ag4
ag4
ag4
ag4
ag4
ag4
ag4
ag4
ag4
ag4
ag4
ag4
ag4
ag4
ag5
ag5
ag5
ag5
ag5
ag5
ag5
ag5
ag5
ag5
ag5
ag5
ag5
ag5
ag5
ag6
ag6
ag6
ag6
ag6
ag6
ag6
ag6
ag6
ag6
ag6
ag6
ag6
ag6
ag6
ag7
ag7
ag7
ag7
ag7
ag7
ag7
ag7
ag7
ag7
ag7
ag7
ag7
ag7
ag7
ag8
ag8
ag8
ag8
ag8
ag8
ag8
ag8
ag8
ag8
ag8
ag8
ag8
ag8
ag8
ag9
ag9
ag9
ag9
ag9
ag9
ag9
ag9
ag9
ag9
ag9
ag9
ag9
ag9
ag9
ag10
ag11
ag10
ag10
ag10
ag10
ag10
ag10
ag10
ag10
ag10
ag10
ag10
ag10
ag10
ag13
ag13
ag13
ag13
ag13
ag13
ag13
ag13
ag13
ag13
ag13
ag13
ag13
ag13
ag13
ag14
ag14
ag14
ag14
ag14
ag14
ag14
ag14
ag14
ag14
ag14
ag14
ag14
ag14
ag14
ag15
ag15
ag15
ag15
ag15
ag15
ag15
ag15
ag15
ag15
ag15
ag15
ag15
ag15
ag15
ag16
ag16
ag16
ag16
ag16
ag16
ag16
ag16
ag16
ag16
ag16
ag16
ag16
ag16
ag16
ag17
ag17
ag17
ag17
ag17
ag17
ag17
ag17
ag17
ag17
ag17
ag17
ag17
ag17
ag17
ag18
ag18
ag18
ag18
ag18
ag18
ag18
ag18
ag18
ag18
ag18
ag18
ag18
ag18
ag18
ag19
ag19
ag19
ag19
ag19
ag19
ag19
ag19
ag19
ag19
ag19
ag19
ag19
ag19
ag19
ag20
ag20
ag20
ag20
ag20
ag20
ag20
ag20
ag20
ag20
ag20
ag20
ag20
ag20
ag20
ag21
ag21
ag21
ag21
ag21
ag21
ag21
ag21
ag21
ag21
ag21
ag21
ag21
ag21
ag21
ag22
ag22
ag22
ag22
ag22
ag22
ag22
ag22
ag22
ag22
ag22
ag22
ag22
ag22
ag22
ag23
ag23
ag23
ag23
ag23
ag23
ag23
ag23
ag23
ag23
ag23
ag23
ag23
ag23
ag23
ag24
ag24
ag24
ag24
ag24
ag24
ag24
ag24
ag24
ag24
ag24
ag24
ag24
ag24
ag24
ag25
ag25
ag25
ag25
ag25
ag25
ag25
ag25
ag25
ag25
ag25
ag25
ag25
ag25
ag25
ag26
ag26
ag26
ag26
ag26
ag26
ag26
ag26
ag26
ag26
ag26
ag26
ag26
ag26
ag26
ag27
ag27
ag27
ag27
ag27
ag27
ag27
ag27
ag27
ag27
ag27
ag27
ag27
ag27
ag27
ag28
ag28
ag28
ag28
ag28
ag28
ag28
ag28
ag28
ag28
ag28
ag28
ag28
ag28
ag28
ag29
ag29
ag29
ag29
ag29
ag29
ag29
ag29
ag29
ag29
ag29
ag29
ag29
ag29
ag29
ag30
ag30
ag30
ag30
ag30
ag30
ag30
ag30
ag30
ag30
ag30
ag30
ag30
ag30
ag30
ag31
ag31
ag31
ag31
ag31
ag31
ag31
ag31
ag31
ag31
ag31
ag31
ag31
ag31
ag31
ag32
ag32
ag32
ag32
ag32
ag32
ag32
ag32
ag32
ag32
ag32
ag32
ag32
ag32
ag32
ag12
ag12
ag12
ag12
ag12
ag12
ag12
ag12
ag12
ag12
ag33
ag33
ag33
ag33
ag33
ag33
ag33
ag33
ag33
ag33
ag33
ag33
ag33
ag33
ag33
ag34
ag34
ag34
ag34
ag34
ag34
ag34
ag34
ag34
ag34
ag34
ag34
ag34
ag34
ag34
ag35
ag35
ag35
ag35
ag35
ag35
ag35
ag35
ag35
ag35
ag35
ag35
ag7
ag7
ag7
ag36
ag36
ag36
ag36
ag36
ag36
ag36
ag36
ag36
ag36
ag36
ag36
ag36
ag36
ag36
ag38
ag38
ag38
ag38
ag38
ag38
ag38
ag38
ag38
ag38
ag38
ag37
ag38
ag38
ag38
ag39
ag39
ag39
ag39
ag39
ag39
ag39
ag39
ag39
ag39
ag39
ag39
ag39
ag39
ag39
ag40
ag40
ag40
ag40
ag40
ag40
ag40
ag40
ag40
ag40
ag40
ag40
ag40
ag40
ag40
ag41
ag41
ag41
ag41
ag41
ag41
ag41
ag41
ag41
ag41
ag41
ag41
ag41
ag41
ag41
ag42
ag42
ag42
ag42
ag42
ag42
ag42
ag42
ag42
ag42
ag42
ag42
ag42
ag42
ag42
ag43
ag43
ag43
ag43
ag43
ag43
ag43
ag43
ag43
ag43
ag43
ag43
ag43
ag43
ag43
ag44
ag44
ag44
ag44
ag44
ag44
ag44
ag44
ag44
ag44
ag44
ag44
ag44
ag44
ag44
ag45
ag45
ag45
ag45
ag45
ag45
ag45
ag45
ag45
ag45
ag45
ag45
ag45
ag45
ag45
ag46
ag46
ag46
ag46
ag46
ag46
ag46
ag46
ag46
ag46
ag46
ag46
ag46
ag46
ag46
ag47
ag47
ag47
ag47
ag47
ag47
ag47
ag47
ag47
ag47
ag47
ag47
ag47
ag47
ag47
ag48
ag48
ag48
ag48
ag48
ag48
ag48
ag48
ag48
ag20
ag48
ag48
ag48
ag48
ag48
ag49
ag49
ag49
ag49
ag49
ag49
ag49
ag49
ag49
ag49
ag49
ag49
ag49
ag49
ag49
ag50
ag50
ag50
ag50
ag50
ag50
ag50
ag50
ag50
ag50
ag50
ag50
ag50
ag50
ag50
ag51
ag51
ag51
ag51
ag51
ag51
ag51
ag51
ag51
ag51
ag51
ag51
ag51
ag51
ag51
ag52
ag52
ag52
ag52
ag52
ag52
ag52
ag52
ag52
ag52
ag52
ag52
ag52
ag52
ag52
ag53
ag53
ag53
ag53
ag53
ag53
ag53
ag53
ag53
ag53
ag53
ag53
ag53
ag53
ag53
ag54
ag54
ag54
ag54
ag54
ag54
ag54
ag54
ag54
ag54
ag54
ag54
ag54
ag54
ag54
ag11
ag11
ag11
ag11
ag11
ag11
ag11
ag11
ag11
ag11
ag11
ag11
ag11
ag11
ag11
ag55
ag55
ag31
ag55
ag55
ag55
ag55
ag55
ag55
ag55
ag55
ag55
ag55
ag55
ag55
ag56
ag41
ag56
ag56
ag56
ag56
ag56
ag56
ag56
ag56
ag57
ag57
ag57
ag57
ag57
ag57
ag57
ag57
ag57
ag57
ag57
ag57
ag57
ag57
ag57
ag58
ag58
ag58
ag58
ag58
ag58
ag58
ag58
ag58
ag58
ag58
ag58
ag58
ag58
ag58
ag59
ag59
ag59
ag59
ag59
ag59
ag59
ag59
ag59
ag59
ag59
ag59
ag59
ag59
ag59
ag60
ag60
ag60
ag60
ag60
ag60
ag60
ag60
ag60
ag60
ag60
ag60
ag60
ag60
ag60
ag61
ag61
ag61
ag61
ag61
ag61
ag61
ag49
ag61
ag61
ag61
ag61
ag61
ag61
ag61
ag62
ag62
ag62
ag62
ag62
ag62
ag62
ag62
ag62
ag62
ag62
ag62
ag62
ag62
ag62
ag37
ag37
ag37
ag37
ag37
ag37
ag37
ag37
ag37
ag37
ag37
ag37
ag37
ag37
ag37
ag63
ag63
ag63
ag63
ag63
ag63
ag63
ag63
ag63
ag63
ag63
ag63
ag63
ag63
ag63
ag64
ag64
ag64
ag64
ag64
ag64
ag64
ag64
ag64
ag64
ag64
ag64
ag64
ag64
ag64
ag65
ag65
ag65
ag65
ag65
ag65
ag65
ag41
ag65
ag65
ag65
ag65
ag65
ag65
ag65
ag66
ag66
ag66
ag66
ag66
ag66
ag66
ag66
ag66
ag66
ag66
ag66
ag66
ag66
ag66
ag67
ag67
ag67
ag67
ag67
ag67
ag67
ag67
ag67
ag67
ag67
ag67
ag67
ag67
ag67
ag68
ag68
ag68
ag68
ag68
ag68
ag68
ag68
ag68
ag68
ag68
ag68
ag68
ag68
ag68
ag69
ag69
ag69
ag69
ag69
ag69
ag69
ag69
ag69
ag69
ag69
ag69
ag12
ag12
ag12
ag70
ag70
ag70
ag70
ag70
ag70
ag70
ag70
ag70
ag70
ag70
ag70
ag70
ag70
ag70
ag71
ag71
ag71
ag71
ag71
ag71
ag71
ag71
ag71
ag71
ag71
ag71
ag71
ag71
ag71
ag72
ag72
ag72
ag72
ag72
ag72
ag72
ag72
ag72
ag72
ag72
ag72
ag72
ag72
ag72
ag73
ag73
ag73
ag73
ag73
ag73
ag73
ag73
ag73
ag73
ag74
ag74
ag74
ag74
ag74
ag74
ag74
ag74
ag74
ag74
ag74
ag74
ag74
ag74
ag74
ag75
ag75
ag75
ag75
ag75
ag75
ag75
ag75
ag75
ag75
ag77
ag77
ag77
ag77
ag77
ag77
ag77
ag77
ag77
ag77
ag77
ag77
ag77
ag77
ag77
ag78
ag78
ag78
ag78
ag78
ag78
ag78
ag78
ag78
ag78
ag78
ag78
ag78
ag78
ag78
ag76
ag76
ag76
ag76
ag76
ag76
ag76
ag76
ag76
ag76
ag76
ag76
ag76
ag76
ag76
ag79
ag79
ag79
ag79
ag79
ag79
ag79
ag79
ag79
ag79
ag79
ag79
ag79
ag79
ag79
ag80
ag80
ag80
ag80
ag80
ag80
ag80
ag80
ag80
ag80
ag80
ag80
ag80
ag80
ag80
ag81
ag81
ag81
ag81
ag81
ag81
ag81
ag81
ag81
ag81
ag81
ag81
ag81
ag81
ag81
ag82
ag82
ag82
ag82
ag82
ag82
ag82
ag82
ag82
ag82
ag82
ag82
ag82
ag82
ag82
ag83
ag83
ag83
ag83
ag83
ag83
ag83
ag83
ag83
ag83
ag83
ag83
ag83
ag83
ag83
ag84
ag84
ag84
ag84
ag84
ag84
ag84
ag84
ag84
ag84
ag84
ag84
ag84
ag84
ag84
ag85
ag85
ag85
ag85
ag85
ag85
ag85
ag85
ag85
ag85
ag85
ag85
ag85
ag85
ag85
ag59
ag86
ag86
ag87
ag87
ag87
ag87
ag87
ag87
ag87
ag87
ag87
ag87
ag88
ag88
ag88
ag88
ag88
ag88
ag88
ag88
ag88
ag88
ag88
ag88
ag54
ag88
ag88
ag89
ag89
ag89
ag89
ag89
ag89
ag89
ag89
ag89
ag89
ag89
ag89
ag89
ag89
ag89
ag90
ag47
ag90
ag90
ag90
ag90
ag90
ag90
ag90
ag90
ag90
ag90
ag90
ag90
ag90
ag91
ag91
ag91
ag91
ag91
ag91
ag91
ag91
ag91
ag91
ag91
ag91
ag91
ag91
ag91
ag60
ag60
ag92
ag92
ag92
ag3
ag92
ag92
ag92
ag92
ag92
ag92
ag92
ag92
ag92
ag93
ag93
ag93
ag93
ag93
ag93
ag93
ag93
ag93
ag23
ag93
ag93
ag93
ag93
ag93
ag94
ag94
ag94
ag94
ag94
ag80
ag94
ag94
ag94
ag94
ag94
ag94
ag94
ag94
ag94
ag95
ag95
ag95
ag95
ag95
ag95
ag95
ag95
ag95
ag95
ag95
ag95
ag95
ag95
ag95
ag96
ag96
ag96
ag96
ag96
ag96
ag96
ag96
ag96
ag96
ag96
ag96
ag96
ag96
ag96
ag97
ag97
ag97
ag97
ag97
ag97
ag97
ag97
ag97
ag97
ag97
ag97
ag97
ag97
ag97
ag98
ag98
ag92
ag98
ag98
ag98
ag98
ag98
ag98
ag98
ag99
ag99
ag99
ag99
ag99
ag99
ag99
ag99
ag99
ag99
ag99
ag99
ag99
ag99
ag99
ag100
ag100
ag100
ag100
ag100
ag100
ag100
ag100
ag100
ag100
ag100
ag100
ag100
ag100
ag100
ag101
ag101
ag101
ag101
ag101
ag101
ag101
ag101
ag101
ag101
ag101
ag101
ag101
ag101
ag101
aa.